; Listing generated by Microsoft (R) Optimizing Compiler Version 16.00.30319.01 

	TITLE	C:\Users\Administrator\Documents\Visual Studio 2010\Projects\SuperMario__\SuperMario_\SuperMario\CEngine.cpp
	.686P
	.XMM
	include listing.inc
	.model	flat

INCLUDELIB OLDNAMES

PUBLIC	??_R4CEngine@@6B@				; CEngine::`RTTI Complete Object Locator'
PUBLIC	??_R3CEngine@@8					; CEngine::`RTTI Class Hierarchy Descriptor'
PUBLIC	??_R2CEngine@@8					; CEngine::`RTTI Base Class Array'
PUBLIC	??_R1A@?0A@EA@CGdiBmp@@8			; CGdiBmp::`RTTI Base Class Descriptor at (0,-1,0,64)'
PUBLIC	??_R3CGdiBmp@@8					; CGdiBmp::`RTTI Class Hierarchy Descriptor'
PUBLIC	??_R2CGdiBmp@@8					; CGdiBmp::`RTTI Base Class Array'
PUBLIC	??_R0?AVCGdiBmp@@@8				; CGdiBmp `RTTI Type Descriptor'
PUBLIC	??_R1A@?0A@EA@CEngine@@8			; CEngine::`RTTI Base Class Descriptor at (0,-1,0,64)'
PUBLIC	??_R0?AVCEngine@@@8				; CEngine `RTTI Type Descriptor'
PUBLIC	?GetEngine@CEngine@@SAPAV1@XZ			; CEngine::GetEngine
PUBLIC	?GetSleep@CEngine@@QAEHXZ			; CEngine::GetSleep
PUBLIC	?GetFrameSpeed@CEngine@@QAEHXZ			; CEngine::GetFrameSpeed
PUBLIC	??_GCDesktop@@QAEPAXI@Z				; CDesktop::`scalar deleting destructor'
PUBLIC	??_GCEngine@@UAEPAXI@Z				; CEngine::`scalar deleting destructor'
PUBLIC	?SetSleep@CEngine@@QAEXH@Z			; CEngine::SetSleep
PUBLIC	?SetWindow@CEngine@@QAEXPAUHWND__@@@Z		; CEngine::SetWindow
PUBLIC	?has_denorm@_Num_base@std@@2W4float_denorm_style@2@B ; std::_Num_base::has_denorm
PUBLIC	?has_denorm_loss@_Num_base@std@@2_NB		; std::_Num_base::has_denorm_loss
PUBLIC	?has_infinity@_Num_base@std@@2_NB		; std::_Num_base::has_infinity
PUBLIC	?has_quiet_NaN@_Num_base@std@@2_NB		; std::_Num_base::has_quiet_NaN
PUBLIC	?has_signaling_NaN@_Num_base@std@@2_NB		; std::_Num_base::has_signaling_NaN
PUBLIC	?is_bounded@_Num_base@std@@2_NB			; std::_Num_base::is_bounded
PUBLIC	?is_exact@_Num_base@std@@2_NB			; std::_Num_base::is_exact
PUBLIC	?is_iec559@_Num_base@std@@2_NB			; std::_Num_base::is_iec559
PUBLIC	?is_integer@_Num_base@std@@2_NB			; std::_Num_base::is_integer
PUBLIC	?is_modulo@_Num_base@std@@2_NB			; std::_Num_base::is_modulo
PUBLIC	?is_signed@_Num_base@std@@2_NB			; std::_Num_base::is_signed
PUBLIC	?is_specialized@_Num_base@std@@2_NB		; std::_Num_base::is_specialized
PUBLIC	?tinyness_before@_Num_base@std@@2_NB		; std::_Num_base::tinyness_before
PUBLIC	?traps@_Num_base@std@@2_NB			; std::_Num_base::traps
PUBLIC	?round_style@_Num_base@std@@2W4float_round_style@2@B ; std::_Num_base::round_style
PUBLIC	?digits@_Num_base@std@@2HB			; std::_Num_base::digits
PUBLIC	?digits10@_Num_base@std@@2HB			; std::_Num_base::digits10
PUBLIC	?max_digits10@_Num_base@std@@2HB		; std::_Num_base::max_digits10
PUBLIC	?max_exponent@_Num_base@std@@2HB		; std::_Num_base::max_exponent
PUBLIC	?max_exponent10@_Num_base@std@@2HB		; std::_Num_base::max_exponent10
PUBLIC	?min_exponent@_Num_base@std@@2HB		; std::_Num_base::min_exponent
PUBLIC	?min_exponent10@_Num_base@std@@2HB		; std::_Num_base::min_exponent10
PUBLIC	?radix@_Num_base@std@@2HB			; std::_Num_base::radix
PUBLIC	?is_bounded@_Num_int_base@std@@2_NB		; std::_Num_int_base::is_bounded
PUBLIC	?is_exact@_Num_int_base@std@@2_NB		; std::_Num_int_base::is_exact
PUBLIC	?is_integer@_Num_int_base@std@@2_NB		; std::_Num_int_base::is_integer
PUBLIC	?is_modulo@_Num_int_base@std@@2_NB		; std::_Num_int_base::is_modulo
PUBLIC	?is_specialized@_Num_int_base@std@@2_NB		; std::_Num_int_base::is_specialized
PUBLIC	?radix@_Num_int_base@std@@2HB			; std::_Num_int_base::radix
PUBLIC	?has_denorm@_Num_float_base@std@@2W4float_denorm_style@2@B ; std::_Num_float_base::has_denorm
PUBLIC	?has_denorm_loss@_Num_float_base@std@@2_NB	; std::_Num_float_base::has_denorm_loss
PUBLIC	?has_infinity@_Num_float_base@std@@2_NB		; std::_Num_float_base::has_infinity
PUBLIC	?has_quiet_NaN@_Num_float_base@std@@2_NB	; std::_Num_float_base::has_quiet_NaN
PUBLIC	?has_signaling_NaN@_Num_float_base@std@@2_NB	; std::_Num_float_base::has_signaling_NaN
PUBLIC	?is_bounded@_Num_float_base@std@@2_NB		; std::_Num_float_base::is_bounded
PUBLIC	?is_exact@_Num_float_base@std@@2_NB		; std::_Num_float_base::is_exact
PUBLIC	?is_iec559@_Num_float_base@std@@2_NB		; std::_Num_float_base::is_iec559
PUBLIC	?is_integer@_Num_float_base@std@@2_NB		; std::_Num_float_base::is_integer
PUBLIC	?is_modulo@_Num_float_base@std@@2_NB		; std::_Num_float_base::is_modulo
PUBLIC	?is_signed@_Num_float_base@std@@2_NB		; std::_Num_float_base::is_signed
PUBLIC	?is_specialized@_Num_float_base@std@@2_NB	; std::_Num_float_base::is_specialized
PUBLIC	?tinyness_before@_Num_float_base@std@@2_NB	; std::_Num_float_base::tinyness_before
PUBLIC	?traps@_Num_float_base@std@@2_NB		; std::_Num_float_base::traps
PUBLIC	?round_style@_Num_float_base@std@@2W4float_round_style@2@B ; std::_Num_float_base::round_style
PUBLIC	?radix@_Num_float_base@std@@2HB			; std::_Num_float_base::radix
PUBLIC	?is_signed@?$numeric_limits@D@std@@2_NB		; std::numeric_limits<char>::is_signed
PUBLIC	?digits@?$numeric_limits@D@std@@2HB		; std::numeric_limits<char>::digits
PUBLIC	?digits10@?$numeric_limits@D@std@@2HB		; std::numeric_limits<char>::digits10
PUBLIC	?max_digits10@?$numeric_limits@D@std@@2HB	; std::numeric_limits<char>::max_digits10
PUBLIC	?is_signed@?$numeric_limits@_W@std@@2_NB	; std::numeric_limits<wchar_t>::is_signed
PUBLIC	?digits@?$numeric_limits@_W@std@@2HB		; std::numeric_limits<wchar_t>::digits
PUBLIC	?digits10@?$numeric_limits@_W@std@@2HB		; std::numeric_limits<wchar_t>::digits10
PUBLIC	?max_digits10@?$numeric_limits@_W@std@@2HB	; std::numeric_limits<wchar_t>::max_digits10
PUBLIC	?is_modulo@?$numeric_limits@_N@std@@2_NB	; std::numeric_limits<bool>::is_modulo
PUBLIC	?is_signed@?$numeric_limits@_N@std@@2_NB	; std::numeric_limits<bool>::is_signed
PUBLIC	?digits@?$numeric_limits@_N@std@@2HB		; std::numeric_limits<bool>::digits
PUBLIC	?digits10@?$numeric_limits@_N@std@@2HB		; std::numeric_limits<bool>::digits10
PUBLIC	?max_digits10@?$numeric_limits@_N@std@@2HB	; std::numeric_limits<bool>::max_digits10
PUBLIC	?is_signed@?$numeric_limits@C@std@@2_NB		; std::numeric_limits<signed char>::is_signed
PUBLIC	?digits@?$numeric_limits@C@std@@2HB		; std::numeric_limits<signed char>::digits
PUBLIC	?digits10@?$numeric_limits@C@std@@2HB		; std::numeric_limits<signed char>::digits10
PUBLIC	?max_digits10@?$numeric_limits@C@std@@2HB	; std::numeric_limits<signed char>::max_digits10
PUBLIC	?is_signed@?$numeric_limits@E@std@@2_NB		; std::numeric_limits<unsigned char>::is_signed
PUBLIC	?digits@?$numeric_limits@E@std@@2HB		; std::numeric_limits<unsigned char>::digits
PUBLIC	?digits10@?$numeric_limits@E@std@@2HB		; std::numeric_limits<unsigned char>::digits10
PUBLIC	?max_digits10@?$numeric_limits@E@std@@2HB	; std::numeric_limits<unsigned char>::max_digits10
PUBLIC	?is_signed@?$numeric_limits@F@std@@2_NB		; std::numeric_limits<short>::is_signed
PUBLIC	?digits@?$numeric_limits@F@std@@2HB		; std::numeric_limits<short>::digits
PUBLIC	?digits10@?$numeric_limits@F@std@@2HB		; std::numeric_limits<short>::digits10
PUBLIC	?max_digits10@?$numeric_limits@F@std@@2HB	; std::numeric_limits<short>::max_digits10
PUBLIC	?is_signed@?$numeric_limits@G@std@@2_NB		; std::numeric_limits<unsigned short>::is_signed
PUBLIC	?digits@?$numeric_limits@G@std@@2HB		; std::numeric_limits<unsigned short>::digits
PUBLIC	?digits10@?$numeric_limits@G@std@@2HB		; std::numeric_limits<unsigned short>::digits10
PUBLIC	?max_digits10@?$numeric_limits@G@std@@2HB	; std::numeric_limits<unsigned short>::max_digits10
PUBLIC	?is_signed@?$numeric_limits@H@std@@2_NB		; std::numeric_limits<int>::is_signed
PUBLIC	?digits@?$numeric_limits@H@std@@2HB		; std::numeric_limits<int>::digits
PUBLIC	?digits10@?$numeric_limits@H@std@@2HB		; std::numeric_limits<int>::digits10
PUBLIC	?max_digits10@?$numeric_limits@H@std@@2HB	; std::numeric_limits<int>::max_digits10
PUBLIC	?is_signed@?$numeric_limits@I@std@@2_NB		; std::numeric_limits<unsigned int>::is_signed
PUBLIC	?digits@?$numeric_limits@I@std@@2HB		; std::numeric_limits<unsigned int>::digits
PUBLIC	?digits10@?$numeric_limits@I@std@@2HB		; std::numeric_limits<unsigned int>::digits10
PUBLIC	?max_digits10@?$numeric_limits@I@std@@2HB	; std::numeric_limits<unsigned int>::max_digits10
PUBLIC	?is_signed@?$numeric_limits@J@std@@2_NB		; std::numeric_limits<long>::is_signed
PUBLIC	?digits@?$numeric_limits@J@std@@2HB		; std::numeric_limits<long>::digits
PUBLIC	?digits10@?$numeric_limits@J@std@@2HB		; std::numeric_limits<long>::digits10
PUBLIC	?max_digits10@?$numeric_limits@J@std@@2HB	; std::numeric_limits<long>::max_digits10
PUBLIC	?is_signed@?$numeric_limits@K@std@@2_NB		; std::numeric_limits<unsigned long>::is_signed
PUBLIC	?digits@?$numeric_limits@K@std@@2HB		; std::numeric_limits<unsigned long>::digits
PUBLIC	?digits10@?$numeric_limits@K@std@@2HB		; std::numeric_limits<unsigned long>::digits10
PUBLIC	?max_digits10@?$numeric_limits@K@std@@2HB	; std::numeric_limits<unsigned long>::max_digits10
PUBLIC	?is_signed@?$numeric_limits@_J@std@@2_NB	; std::numeric_limits<__int64>::is_signed
PUBLIC	?digits@?$numeric_limits@_J@std@@2HB		; std::numeric_limits<__int64>::digits
PUBLIC	?digits10@?$numeric_limits@_J@std@@2HB		; std::numeric_limits<__int64>::digits10
PUBLIC	?max_digits10@?$numeric_limits@_J@std@@2HB	; std::numeric_limits<__int64>::max_digits10
PUBLIC	?is_signed@?$numeric_limits@_K@std@@2_NB	; std::numeric_limits<unsigned __int64>::is_signed
PUBLIC	?digits@?$numeric_limits@_K@std@@2HB		; std::numeric_limits<unsigned __int64>::digits
PUBLIC	?digits10@?$numeric_limits@_K@std@@2HB		; std::numeric_limits<unsigned __int64>::digits10
PUBLIC	?max_digits10@?$numeric_limits@_K@std@@2HB	; std::numeric_limits<unsigned __int64>::max_digits10
PUBLIC	?digits@?$numeric_limits@M@std@@2HB		; std::numeric_limits<float>::digits
PUBLIC	?digits10@?$numeric_limits@M@std@@2HB		; std::numeric_limits<float>::digits10
PUBLIC	?max_digits10@?$numeric_limits@M@std@@2HB	; std::numeric_limits<float>::max_digits10
PUBLIC	?max_exponent@?$numeric_limits@M@std@@2HB	; std::numeric_limits<float>::max_exponent
PUBLIC	?max_exponent10@?$numeric_limits@M@std@@2HB	; std::numeric_limits<float>::max_exponent10
PUBLIC	?min_exponent@?$numeric_limits@M@std@@2HB	; std::numeric_limits<float>::min_exponent
PUBLIC	?min_exponent10@?$numeric_limits@M@std@@2HB	; std::numeric_limits<float>::min_exponent10
PUBLIC	?digits@?$numeric_limits@N@std@@2HB		; std::numeric_limits<double>::digits
PUBLIC	?digits10@?$numeric_limits@N@std@@2HB		; std::numeric_limits<double>::digits10
PUBLIC	?max_digits10@?$numeric_limits@N@std@@2HB	; std::numeric_limits<double>::max_digits10
PUBLIC	?max_exponent@?$numeric_limits@N@std@@2HB	; std::numeric_limits<double>::max_exponent
PUBLIC	?max_exponent10@?$numeric_limits@N@std@@2HB	; std::numeric_limits<double>::max_exponent10
PUBLIC	?min_exponent@?$numeric_limits@N@std@@2HB	; std::numeric_limits<double>::min_exponent
PUBLIC	?min_exponent10@?$numeric_limits@N@std@@2HB	; std::numeric_limits<double>::min_exponent10
PUBLIC	?digits@?$numeric_limits@O@std@@2HB		; std::numeric_limits<long double>::digits
PUBLIC	?digits10@?$numeric_limits@O@std@@2HB		; std::numeric_limits<long double>::digits10
PUBLIC	?max_digits10@?$numeric_limits@O@std@@2HB	; std::numeric_limits<long double>::max_digits10
PUBLIC	?max_exponent@?$numeric_limits@O@std@@2HB	; std::numeric_limits<long double>::max_exponent
PUBLIC	?max_exponent10@?$numeric_limits@O@std@@2HB	; std::numeric_limits<long double>::max_exponent10
PUBLIC	?min_exponent@?$numeric_limits@O@std@@2HB	; std::numeric_limits<long double>::min_exponent
PUBLIC	?min_exponent10@?$numeric_limits@O@std@@2HB	; std::numeric_limits<long double>::min_exponent10
PUBLIC	?value@?$integral_constant@_N$0A@@tr1@std@@2_NB	; std::tr1::integral_constant<bool,0>::value
PUBLIC	?value@?$integral_constant@_N$00@tr1@std@@2_NB	; std::tr1::integral_constant<bool,1>::value
PUBLIC	?value@?$integral_constant@I$0A@@tr1@std@@2IB	; std::tr1::integral_constant<unsigned int,0>::value
PUBLIC	?_Rank@?$_Arithmetic_traits@_N@std@@2HB		; std::_Arithmetic_traits<bool>::_Rank
PUBLIC	?_Rank@?$_Arithmetic_traits@D@std@@2HB		; std::_Arithmetic_traits<char>::_Rank
PUBLIC	?_Rank@?$_Arithmetic_traits@C@std@@2HB		; std::_Arithmetic_traits<signed char>::_Rank
PUBLIC	?_Rank@?$_Arithmetic_traits@E@std@@2HB		; std::_Arithmetic_traits<unsigned char>::_Rank
PUBLIC	?_Rank@?$_Arithmetic_traits@F@std@@2HB		; std::_Arithmetic_traits<short>::_Rank
PUBLIC	?_Rank@?$_Arithmetic_traits@G@std@@2HB		; std::_Arithmetic_traits<unsigned short>::_Rank
PUBLIC	?_Rank@?$_Arithmetic_traits@H@std@@2HB		; std::_Arithmetic_traits<int>::_Rank
PUBLIC	?_Rank@?$_Arithmetic_traits@I@std@@2HB		; std::_Arithmetic_traits<unsigned int>::_Rank
PUBLIC	?_Rank@?$_Arithmetic_traits@J@std@@2HB		; std::_Arithmetic_traits<long>::_Rank
PUBLIC	?_Rank@?$_Arithmetic_traits@K@std@@2HB		; std::_Arithmetic_traits<unsigned long>::_Rank
PUBLIC	?_Rank@?$_Arithmetic_traits@_J@std@@2HB		; std::_Arithmetic_traits<__int64>::_Rank
PUBLIC	?_Rank@?$_Arithmetic_traits@_K@std@@2HB		; std::_Arithmetic_traits<unsigned __int64>::_Rank
PUBLIC	?_Rank@?$_Arithmetic_traits@M@std@@2HB		; std::_Arithmetic_traits<float>::_Rank
PUBLIC	?_Rank@?$_Arithmetic_traits@N@std@@2HB		; std::_Arithmetic_traits<double>::_Rank
PUBLIC	?_Rank@?$_Arithmetic_traits@O@std@@2HB		; std::_Arithmetic_traits<long double>::_Rank
PUBLIC	?collate@?$_Locbase@H@std@@2HB			; std::_Locbase<int>::collate
PUBLIC	?ctype@?$_Locbase@H@std@@2HB			; std::_Locbase<int>::ctype
PUBLIC	?monetary@?$_Locbase@H@std@@2HB			; std::_Locbase<int>::monetary
PUBLIC	?numeric@?$_Locbase@H@std@@2HB			; std::_Locbase<int>::numeric
PUBLIC	?time@?$_Locbase@H@std@@2HB			; std::_Locbase<int>::time
PUBLIC	?messages@?$_Locbase@H@std@@2HB			; std::_Locbase<int>::messages
PUBLIC	?all@?$_Locbase@H@std@@2HB			; std::_Locbase<int>::all
PUBLIC	?none@?$_Locbase@H@std@@2HB			; std::_Locbase<int>::none
PUBLIC	?table_size@?$ctype@D@std@@2IB			; std::ctype<char>::table_size
PUBLIC	?skipws@?$_Iosb@H@std@@2W4_Fmtflags@12@B	; std::_Iosb<int>::skipws
PUBLIC	?unitbuf@?$_Iosb@H@std@@2W4_Fmtflags@12@B	; std::_Iosb<int>::unitbuf
PUBLIC	?uppercase@?$_Iosb@H@std@@2W4_Fmtflags@12@B	; std::_Iosb<int>::uppercase
PUBLIC	?showbase@?$_Iosb@H@std@@2W4_Fmtflags@12@B	; std::_Iosb<int>::showbase
PUBLIC	?showpoint@?$_Iosb@H@std@@2W4_Fmtflags@12@B	; std::_Iosb<int>::showpoint
PUBLIC	?showpos@?$_Iosb@H@std@@2W4_Fmtflags@12@B	; std::_Iosb<int>::showpos
PUBLIC	?left@?$_Iosb@H@std@@2W4_Fmtflags@12@B		; std::_Iosb<int>::left
PUBLIC	?right@?$_Iosb@H@std@@2W4_Fmtflags@12@B		; std::_Iosb<int>::right
PUBLIC	?internal@?$_Iosb@H@std@@2W4_Fmtflags@12@B	; std::_Iosb<int>::internal
PUBLIC	?dec@?$_Iosb@H@std@@2W4_Fmtflags@12@B		; std::_Iosb<int>::dec
PUBLIC	?oct@?$_Iosb@H@std@@2W4_Fmtflags@12@B		; std::_Iosb<int>::oct
PUBLIC	?hex@?$_Iosb@H@std@@2W4_Fmtflags@12@B		; std::_Iosb<int>::hex
PUBLIC	?scientific@?$_Iosb@H@std@@2W4_Fmtflags@12@B	; std::_Iosb<int>::scientific
PUBLIC	?fixed@?$_Iosb@H@std@@2W4_Fmtflags@12@B		; std::_Iosb<int>::fixed
PUBLIC	?hexfloat@?$_Iosb@H@std@@2W4_Fmtflags@12@B	; std::_Iosb<int>::hexfloat
PUBLIC	?boolalpha@?$_Iosb@H@std@@2W4_Fmtflags@12@B	; std::_Iosb<int>::boolalpha
PUBLIC	?_Stdio@?$_Iosb@H@std@@2W4_Fmtflags@12@B	; std::_Iosb<int>::_Stdio
PUBLIC	?adjustfield@?$_Iosb@H@std@@2W4_Fmtflags@12@B	; std::_Iosb<int>::adjustfield
PUBLIC	?basefield@?$_Iosb@H@std@@2W4_Fmtflags@12@B	; std::_Iosb<int>::basefield
PUBLIC	?floatfield@?$_Iosb@H@std@@2W4_Fmtflags@12@B	; std::_Iosb<int>::floatfield
PUBLIC	?goodbit@?$_Iosb@H@std@@2W4_Iostate@12@B	; std::_Iosb<int>::goodbit
PUBLIC	?eofbit@?$_Iosb@H@std@@2W4_Iostate@12@B		; std::_Iosb<int>::eofbit
PUBLIC	?failbit@?$_Iosb@H@std@@2W4_Iostate@12@B	; std::_Iosb<int>::failbit
PUBLIC	?badbit@?$_Iosb@H@std@@2W4_Iostate@12@B		; std::_Iosb<int>::badbit
PUBLIC	?_Hardfail@?$_Iosb@H@std@@2W4_Iostate@12@B	; std::_Iosb<int>::_Hardfail
PUBLIC	?in@?$_Iosb@H@std@@2W4_Openmode@12@B		; std::_Iosb<int>::in
PUBLIC	?out@?$_Iosb@H@std@@2W4_Openmode@12@B		; std::_Iosb<int>::out
PUBLIC	?ate@?$_Iosb@H@std@@2W4_Openmode@12@B		; std::_Iosb<int>::ate
PUBLIC	?app@?$_Iosb@H@std@@2W4_Openmode@12@B		; std::_Iosb<int>::app
PUBLIC	?trunc@?$_Iosb@H@std@@2W4_Openmode@12@B		; std::_Iosb<int>::trunc
PUBLIC	?_Nocreate@?$_Iosb@H@std@@2W4_Openmode@12@B	; std::_Iosb<int>::_Nocreate
PUBLIC	?_Noreplace@?$_Iosb@H@std@@2W4_Openmode@12@B	; std::_Iosb<int>::_Noreplace
PUBLIC	?binary@?$_Iosb@H@std@@2W4_Openmode@12@B	; std::_Iosb<int>::binary
PUBLIC	?beg@?$_Iosb@H@std@@2W4_Seekdir@12@B		; std::_Iosb<int>::beg
PUBLIC	?cur@?$_Iosb@H@std@@2W4_Seekdir@12@B		; std::_Iosb<int>::cur
PUBLIC	?end@?$_Iosb@H@std@@2W4_Seekdir@12@B		; std::_Iosb<int>::end
PUBLIC	?pEngine@CEngine@@1PAV1@A			; CEngine::pEngine
PUBLIC	??_C@_04JBPPCJCH@?$LK?Z?L?e?$AA@		; `string'
PUBLIC	??_C@_07GCMGIOFP@Exit?$FLE?$FN?$AA@		; `string'
PUBLIC	??_C@_0BB@GJLMOHLD@?D?c?H?$LH?$LG?$KI?R?$KK?M?K?$LD?v?B?p?$KD?$LP?$AA@ ; `string'
PUBLIC	??_C@_03OKNNHOME@mai?$AA@			; `string'
PUBLIC	??_C@_0BA@ILAPJEOG@ABOUT?5?9?5Exit?$FLE?$FN?$AA@ ; `string'
PUBLIC	??_C@_03PMGGPEJJ@?$CFd?6?$AA@			; `string'
PUBLIC	??_C@_0O@NHMMNAMA@Are?5you?5sure?$DP?$AA@	; `string'
PUBLIC	??_7CEngine@@6B@				; CEngine::`vftable'
EXTRN	__imp__GetTickCount@0:PROC
EXTRN	__imp__TranslateMessage@4:PROC
EXTRN	__imp__DispatchMessageA@4:PROC
EXTRN	__imp__PeekMessageA@20:PROC
EXTRN	__imp__lstrcpyA@8:PROC
EXTRN	??_ECEngine@@UAEPAXI@Z:PROC			; CEngine::`vector deleting destructor'
EXTRN	__imp__CreateSolidBrush@4:PROC
EXTRN	__imp__DefWindowProcA@16:PROC
EXTRN	__imp__PostQuitMessage@4:PROC
EXTRN	__imp__RegisterClassExA@4:PROC
EXTRN	__imp__CreateWindowExA@48:PROC
EXTRN	__imp__DestroyWindow@4:PROC
EXTRN	__imp__ShowWindow@8:PROC
EXTRN	__imp__SetWindowPos@28:PROC
EXTRN	__imp__GetSystemMetrics@4:PROC
EXTRN	__imp__UpdateWindow@4:PROC
EXTRN	__imp__BeginPaint@8:PROC
EXTRN	__imp__EndPaint@8:PROC
EXTRN	__imp__GetWindowRect@8:PROC
EXTRN	__imp__MessageBoxA@16:PROC
EXTRN	__imp__ShowCursor@4:PROC
EXTRN	__imp__GetWindowLongA@8:PROC
EXTRN	__imp__SetWindowLongA@12:PROC
EXTRN	__imp__GetDesktopWindow@0:PROC
EXTRN	__imp__LoadCursorA@8:PROC
EXTRN	_printf:PROC
?pEngine@CEngine@@1PAV1@A DD 01H DUP (?)		; CEngine::pEngine
;	COMDAT ?TickElapsed@?1??WinMain@@9@16@4HA
_BSS	SEGMENT
?TickElapsed@?1??WinMain@@9@16@4HA DD 01H DUP (?)	; `WinMain'::`2'::TickElapsed
;	COMDAT ??_7CEngine@@6B@
CONST	SEGMENT
??_7CEngine@@6B@ DD FLAT:??_R4CEngine@@6B@		; CEngine::`vftable'
	DD	FLAT:??_ECEngine@@UAEPAXI@Z
CONST	ENDS
;	COMDAT ??_R4CEngine@@6B@
rdata$r	SEGMENT
??_R4CEngine@@6B@ DD 00H				; CEngine::`RTTI Complete Object Locator'
	DD	00H
	DD	00H
	DD	FLAT:??_R0?AVCEngine@@@8
	DD	FLAT:??_R3CEngine@@8
rdata$r	ENDS
;	COMDAT ??_R3CEngine@@8
rdata$r	SEGMENT
??_R3CEngine@@8 DD 00H					; CEngine::`RTTI Class Hierarchy Descriptor'
	DD	00H
	DD	02H
	DD	FLAT:??_R2CEngine@@8
rdata$r	ENDS
;	COMDAT ??_R2CEngine@@8
rdata$r	SEGMENT
??_R2CEngine@@8 DD FLAT:??_R1A@?0A@EA@CEngine@@8	; CEngine::`RTTI Base Class Array'
	DD	FLAT:??_R1A@?0A@EA@CGdiBmp@@8
rdata$r	ENDS
;	COMDAT ??_R1A@?0A@EA@CGdiBmp@@8
rdata$r	SEGMENT
??_R1A@?0A@EA@CGdiBmp@@8 DD FLAT:??_R0?AVCGdiBmp@@@8	; CGdiBmp::`RTTI Base Class Descriptor at (0,-1,0,64)'
	DD	00H
	DD	00H
	DD	0ffffffffH
	DD	00H
	DD	040H
	DD	FLAT:??_R3CGdiBmp@@8
rdata$r	ENDS
;	COMDAT ??_R3CGdiBmp@@8
rdata$r	SEGMENT
??_R3CGdiBmp@@8 DD 00H					; CGdiBmp::`RTTI Class Hierarchy Descriptor'
	DD	00H
	DD	01H
	DD	FLAT:??_R2CGdiBmp@@8
rdata$r	ENDS
;	COMDAT ??_R2CGdiBmp@@8
rdata$r	SEGMENT
??_R2CGdiBmp@@8 DD FLAT:??_R1A@?0A@EA@CGdiBmp@@8	; CGdiBmp::`RTTI Base Class Array'
rdata$r	ENDS
;	COMDAT ??_R0?AVCGdiBmp@@@8
_DATA	SEGMENT
??_R0?AVCGdiBmp@@@8 DD FLAT:??_7type_info@@6B@		; CGdiBmp `RTTI Type Descriptor'
	DD	00H
	DB	'.?AVCGdiBmp@@', 00H
_DATA	ENDS
;	COMDAT ??_R1A@?0A@EA@CEngine@@8
rdata$r	SEGMENT
??_R1A@?0A@EA@CEngine@@8 DD FLAT:??_R0?AVCEngine@@@8	; CEngine::`RTTI Base Class Descriptor at (0,-1,0,64)'
	DD	01H
	DD	00H
	DD	0ffffffffH
	DD	00H
	DD	040H
	DD	FLAT:??_R3CEngine@@8
rdata$r	ENDS
;	COMDAT ??_R0?AVCEngine@@@8
_DATA	SEGMENT
??_R0?AVCEngine@@@8 DD FLAT:??_7type_info@@6B@		; CEngine `RTTI Type Descriptor'
	DD	00H
	DB	'.?AVCEngine@@', 00H
_DATA	ENDS
;	COMDAT ??_C@_0O@NHMMNAMA@Are?5you?5sure?$DP?$AA@
CONST	SEGMENT
??_C@_0O@NHMMNAMA@Are?5you?5sure?$DP?$AA@ DB 'Are you sure?', 00H ; `string'
CONST	ENDS
;	COMDAT ??_C@_03PMGGPEJJ@?$CFd?6?$AA@
CONST	SEGMENT
??_C@_03PMGGPEJJ@?$CFd?6?$AA@ DB '%d', 0aH, 00H		; `string'
CONST	ENDS
;	COMDAT ??_C@_0BA@ILAPJEOG@ABOUT?5?9?5Exit?$FLE?$FN?$AA@
CONST	SEGMENT
??_C@_0BA@ILAPJEOG@ABOUT?5?9?5Exit?$FLE?$FN?$AA@ DB 'ABOUT - Exit[E]', 00H ; `string'
CONST	ENDS
;	COMDAT ??_C@_03OKNNHOME@mai?$AA@
CONST	SEGMENT
??_C@_03OKNNHOME@mai?$AA@ DB 'mai', 00H			; `string'
CONST	ENDS
;	COMDAT ??_C@_0BB@GJLMOHLD@?D?c?H?$LH?$LG?$KI?R?$KK?M?K?$LD?v?B?p?$KD?$LP?$AA@
CONST	SEGMENT
??_C@_0BB@GJLMOHLD@?D?c?H?$LH?$LG?$KI?R?$KK?M?K?$LD?v?B?p?$KD?$LP?$AA@ DB 0c4H
	DB	0e3H, 0c8H, 0b7H, 0b6H, 0a8H, 0d2H, 0aaH, 0cdH, 0cbH, 0b3H, 0f6H
	DB	0c2H, 0f0H, 0a3H, 0bfH, 00H			; `string'
CONST	ENDS
;	COMDAT ??_C@_07GCMGIOFP@Exit?$FLE?$FN?$AA@
CONST	SEGMENT
??_C@_07GCMGIOFP@Exit?$FLE?$FN?$AA@ DB 'Exit[E]', 00H	; `string'
CONST	ENDS
;	COMDAT ??_C@_04JBPPCJCH@?$LK?Z?L?e?$AA@
CONST	SEGMENT
??_C@_04JBPPCJCH@?$LK?Z?L?e?$AA@ DB 0baH, 0daH, 0ccH, 0e5H, 00H ; `string'
CONST	ENDS
;	COMDAT ?end@?$_Iosb@H@std@@2W4_Seekdir@12@B
CONST	SEGMENT
?end@?$_Iosb@H@std@@2W4_Seekdir@12@B DD 02H		; std::_Iosb<int>::end
CONST	ENDS
;	COMDAT ?cur@?$_Iosb@H@std@@2W4_Seekdir@12@B
CONST	SEGMENT
?cur@?$_Iosb@H@std@@2W4_Seekdir@12@B DD 01H		; std::_Iosb<int>::cur
CONST	ENDS
;	COMDAT ?beg@?$_Iosb@H@std@@2W4_Seekdir@12@B
CONST	SEGMENT
?beg@?$_Iosb@H@std@@2W4_Seekdir@12@B DD 00H		; std::_Iosb<int>::beg
CONST	ENDS
;	COMDAT ?binary@?$_Iosb@H@std@@2W4_Openmode@12@B
CONST	SEGMENT
?binary@?$_Iosb@H@std@@2W4_Openmode@12@B DD 020H	; std::_Iosb<int>::binary
CONST	ENDS
;	COMDAT ?_Noreplace@?$_Iosb@H@std@@2W4_Openmode@12@B
CONST	SEGMENT
?_Noreplace@?$_Iosb@H@std@@2W4_Openmode@12@B DD 080H	; std::_Iosb<int>::_Noreplace
CONST	ENDS
;	COMDAT ?_Nocreate@?$_Iosb@H@std@@2W4_Openmode@12@B
CONST	SEGMENT
?_Nocreate@?$_Iosb@H@std@@2W4_Openmode@12@B DD 040H	; std::_Iosb<int>::_Nocreate
CONST	ENDS
;	COMDAT ?trunc@?$_Iosb@H@std@@2W4_Openmode@12@B
CONST	SEGMENT
?trunc@?$_Iosb@H@std@@2W4_Openmode@12@B DD 010H		; std::_Iosb<int>::trunc
CONST	ENDS
;	COMDAT ?app@?$_Iosb@H@std@@2W4_Openmode@12@B
CONST	SEGMENT
?app@?$_Iosb@H@std@@2W4_Openmode@12@B DD 08H		; std::_Iosb<int>::app
CONST	ENDS
;	COMDAT ?ate@?$_Iosb@H@std@@2W4_Openmode@12@B
CONST	SEGMENT
?ate@?$_Iosb@H@std@@2W4_Openmode@12@B DD 04H		; std::_Iosb<int>::ate
CONST	ENDS
;	COMDAT ?out@?$_Iosb@H@std@@2W4_Openmode@12@B
CONST	SEGMENT
?out@?$_Iosb@H@std@@2W4_Openmode@12@B DD 02H		; std::_Iosb<int>::out
CONST	ENDS
;	COMDAT ?in@?$_Iosb@H@std@@2W4_Openmode@12@B
CONST	SEGMENT
?in@?$_Iosb@H@std@@2W4_Openmode@12@B DD 01H		; std::_Iosb<int>::in
CONST	ENDS
;	COMDAT ?_Hardfail@?$_Iosb@H@std@@2W4_Iostate@12@B
CONST	SEGMENT
?_Hardfail@?$_Iosb@H@std@@2W4_Iostate@12@B DD 010H	; std::_Iosb<int>::_Hardfail
CONST	ENDS
;	COMDAT ?badbit@?$_Iosb@H@std@@2W4_Iostate@12@B
CONST	SEGMENT
?badbit@?$_Iosb@H@std@@2W4_Iostate@12@B DD 04H		; std::_Iosb<int>::badbit
CONST	ENDS
;	COMDAT ?failbit@?$_Iosb@H@std@@2W4_Iostate@12@B
CONST	SEGMENT
?failbit@?$_Iosb@H@std@@2W4_Iostate@12@B DD 02H		; std::_Iosb<int>::failbit
CONST	ENDS
;	COMDAT ?eofbit@?$_Iosb@H@std@@2W4_Iostate@12@B
CONST	SEGMENT
?eofbit@?$_Iosb@H@std@@2W4_Iostate@12@B DD 01H		; std::_Iosb<int>::eofbit
CONST	ENDS
;	COMDAT ?goodbit@?$_Iosb@H@std@@2W4_Iostate@12@B
CONST	SEGMENT
?goodbit@?$_Iosb@H@std@@2W4_Iostate@12@B DD 00H		; std::_Iosb<int>::goodbit
CONST	ENDS
;	COMDAT ?floatfield@?$_Iosb@H@std@@2W4_Fmtflags@12@B
CONST	SEGMENT
?floatfield@?$_Iosb@H@std@@2W4_Fmtflags@12@B DD 03000H	; std::_Iosb<int>::floatfield
CONST	ENDS
;	COMDAT ?basefield@?$_Iosb@H@std@@2W4_Fmtflags@12@B
CONST	SEGMENT
?basefield@?$_Iosb@H@std@@2W4_Fmtflags@12@B DD 0e00H	; std::_Iosb<int>::basefield
CONST	ENDS
;	COMDAT ?adjustfield@?$_Iosb@H@std@@2W4_Fmtflags@12@B
CONST	SEGMENT
?adjustfield@?$_Iosb@H@std@@2W4_Fmtflags@12@B DD 01c0H	; std::_Iosb<int>::adjustfield
CONST	ENDS
;	COMDAT ?_Stdio@?$_Iosb@H@std@@2W4_Fmtflags@12@B
CONST	SEGMENT
?_Stdio@?$_Iosb@H@std@@2W4_Fmtflags@12@B DD 08000H	; std::_Iosb<int>::_Stdio
CONST	ENDS
;	COMDAT ?boolalpha@?$_Iosb@H@std@@2W4_Fmtflags@12@B
CONST	SEGMENT
?boolalpha@?$_Iosb@H@std@@2W4_Fmtflags@12@B DD 04000H	; std::_Iosb<int>::boolalpha
CONST	ENDS
;	COMDAT ?hexfloat@?$_Iosb@H@std@@2W4_Fmtflags@12@B
CONST	SEGMENT
?hexfloat@?$_Iosb@H@std@@2W4_Fmtflags@12@B DD 03000H	; std::_Iosb<int>::hexfloat
CONST	ENDS
;	COMDAT ?fixed@?$_Iosb@H@std@@2W4_Fmtflags@12@B
CONST	SEGMENT
?fixed@?$_Iosb@H@std@@2W4_Fmtflags@12@B DD 02000H	; std::_Iosb<int>::fixed
CONST	ENDS
;	COMDAT ?scientific@?$_Iosb@H@std@@2W4_Fmtflags@12@B
CONST	SEGMENT
?scientific@?$_Iosb@H@std@@2W4_Fmtflags@12@B DD 01000H	; std::_Iosb<int>::scientific
CONST	ENDS
;	COMDAT ?hex@?$_Iosb@H@std@@2W4_Fmtflags@12@B
CONST	SEGMENT
?hex@?$_Iosb@H@std@@2W4_Fmtflags@12@B DD 0800H		; std::_Iosb<int>::hex
CONST	ENDS
;	COMDAT ?oct@?$_Iosb@H@std@@2W4_Fmtflags@12@B
CONST	SEGMENT
?oct@?$_Iosb@H@std@@2W4_Fmtflags@12@B DD 0400H		; std::_Iosb<int>::oct
CONST	ENDS
;	COMDAT ?dec@?$_Iosb@H@std@@2W4_Fmtflags@12@B
CONST	SEGMENT
?dec@?$_Iosb@H@std@@2W4_Fmtflags@12@B DD 0200H		; std::_Iosb<int>::dec
CONST	ENDS
;	COMDAT ?internal@?$_Iosb@H@std@@2W4_Fmtflags@12@B
CONST	SEGMENT
?internal@?$_Iosb@H@std@@2W4_Fmtflags@12@B DD 0100H	; std::_Iosb<int>::internal
CONST	ENDS
;	COMDAT ?right@?$_Iosb@H@std@@2W4_Fmtflags@12@B
CONST	SEGMENT
?right@?$_Iosb@H@std@@2W4_Fmtflags@12@B DD 080H		; std::_Iosb<int>::right
CONST	ENDS
;	COMDAT ?left@?$_Iosb@H@std@@2W4_Fmtflags@12@B
CONST	SEGMENT
?left@?$_Iosb@H@std@@2W4_Fmtflags@12@B DD 040H		; std::_Iosb<int>::left
CONST	ENDS
;	COMDAT ?showpos@?$_Iosb@H@std@@2W4_Fmtflags@12@B
CONST	SEGMENT
?showpos@?$_Iosb@H@std@@2W4_Fmtflags@12@B DD 020H	; std::_Iosb<int>::showpos
CONST	ENDS
;	COMDAT ?showpoint@?$_Iosb@H@std@@2W4_Fmtflags@12@B
CONST	SEGMENT
?showpoint@?$_Iosb@H@std@@2W4_Fmtflags@12@B DD 010H	; std::_Iosb<int>::showpoint
CONST	ENDS
;	COMDAT ?showbase@?$_Iosb@H@std@@2W4_Fmtflags@12@B
CONST	SEGMENT
?showbase@?$_Iosb@H@std@@2W4_Fmtflags@12@B DD 08H	; std::_Iosb<int>::showbase
CONST	ENDS
;	COMDAT ?uppercase@?$_Iosb@H@std@@2W4_Fmtflags@12@B
CONST	SEGMENT
?uppercase@?$_Iosb@H@std@@2W4_Fmtflags@12@B DD 04H	; std::_Iosb<int>::uppercase
CONST	ENDS
;	COMDAT ?unitbuf@?$_Iosb@H@std@@2W4_Fmtflags@12@B
CONST	SEGMENT
?unitbuf@?$_Iosb@H@std@@2W4_Fmtflags@12@B DD 02H	; std::_Iosb<int>::unitbuf
CONST	ENDS
;	COMDAT ?skipws@?$_Iosb@H@std@@2W4_Fmtflags@12@B
CONST	SEGMENT
?skipws@?$_Iosb@H@std@@2W4_Fmtflags@12@B DD 01H		; std::_Iosb<int>::skipws
CONST	ENDS
;	COMDAT ?table_size@?$ctype@D@std@@2IB
CONST	SEGMENT
?table_size@?$ctype@D@std@@2IB DD 0100H			; std::ctype<char>::table_size
CONST	ENDS
;	COMDAT ?none@?$_Locbase@H@std@@2HB
CONST	SEGMENT
?none@?$_Locbase@H@std@@2HB DD 00H			; std::_Locbase<int>::none
CONST	ENDS
;	COMDAT ?all@?$_Locbase@H@std@@2HB
CONST	SEGMENT
?all@?$_Locbase@H@std@@2HB DD 03fH			; std::_Locbase<int>::all
CONST	ENDS
;	COMDAT ?messages@?$_Locbase@H@std@@2HB
CONST	SEGMENT
?messages@?$_Locbase@H@std@@2HB DD 020H			; std::_Locbase<int>::messages
CONST	ENDS
;	COMDAT ?time@?$_Locbase@H@std@@2HB
CONST	SEGMENT
?time@?$_Locbase@H@std@@2HB DD 010H			; std::_Locbase<int>::time
CONST	ENDS
;	COMDAT ?numeric@?$_Locbase@H@std@@2HB
CONST	SEGMENT
?numeric@?$_Locbase@H@std@@2HB DD 08H			; std::_Locbase<int>::numeric
CONST	ENDS
;	COMDAT ?monetary@?$_Locbase@H@std@@2HB
CONST	SEGMENT
?monetary@?$_Locbase@H@std@@2HB DD 04H			; std::_Locbase<int>::monetary
CONST	ENDS
;	COMDAT ?ctype@?$_Locbase@H@std@@2HB
CONST	SEGMENT
?ctype@?$_Locbase@H@std@@2HB DD 02H			; std::_Locbase<int>::ctype
CONST	ENDS
;	COMDAT ?collate@?$_Locbase@H@std@@2HB
CONST	SEGMENT
?collate@?$_Locbase@H@std@@2HB DD 01H			; std::_Locbase<int>::collate
CONST	ENDS
;	COMDAT ?_Rank@?$_Arithmetic_traits@O@std@@2HB
CONST	SEGMENT
?_Rank@?$_Arithmetic_traits@O@std@@2HB DD 09H		; std::_Arithmetic_traits<long double>::_Rank
CONST	ENDS
;	COMDAT ?_Rank@?$_Arithmetic_traits@N@std@@2HB
CONST	SEGMENT
?_Rank@?$_Arithmetic_traits@N@std@@2HB DD 08H		; std::_Arithmetic_traits<double>::_Rank
CONST	ENDS
;	COMDAT ?_Rank@?$_Arithmetic_traits@M@std@@2HB
CONST	SEGMENT
?_Rank@?$_Arithmetic_traits@M@std@@2HB DD 07H		; std::_Arithmetic_traits<float>::_Rank
CONST	ENDS
;	COMDAT ?_Rank@?$_Arithmetic_traits@_K@std@@2HB
CONST	SEGMENT
?_Rank@?$_Arithmetic_traits@_K@std@@2HB DD 06H		; std::_Arithmetic_traits<unsigned __int64>::_Rank
CONST	ENDS
;	COMDAT ?_Rank@?$_Arithmetic_traits@_J@std@@2HB
CONST	SEGMENT
?_Rank@?$_Arithmetic_traits@_J@std@@2HB DD 06H		; std::_Arithmetic_traits<__int64>::_Rank
CONST	ENDS
;	COMDAT ?_Rank@?$_Arithmetic_traits@K@std@@2HB
CONST	SEGMENT
?_Rank@?$_Arithmetic_traits@K@std@@2HB DD 05H		; std::_Arithmetic_traits<unsigned long>::_Rank
CONST	ENDS
;	COMDAT ?_Rank@?$_Arithmetic_traits@J@std@@2HB
CONST	SEGMENT
?_Rank@?$_Arithmetic_traits@J@std@@2HB DD 05H		; std::_Arithmetic_traits<long>::_Rank
CONST	ENDS
;	COMDAT ?_Rank@?$_Arithmetic_traits@I@std@@2HB
CONST	SEGMENT
?_Rank@?$_Arithmetic_traits@I@std@@2HB DD 04H		; std::_Arithmetic_traits<unsigned int>::_Rank
CONST	ENDS
;	COMDAT ?_Rank@?$_Arithmetic_traits@H@std@@2HB
CONST	SEGMENT
?_Rank@?$_Arithmetic_traits@H@std@@2HB DD 04H		; std::_Arithmetic_traits<int>::_Rank
CONST	ENDS
;	COMDAT ?_Rank@?$_Arithmetic_traits@G@std@@2HB
CONST	SEGMENT
?_Rank@?$_Arithmetic_traits@G@std@@2HB DD 03H		; std::_Arithmetic_traits<unsigned short>::_Rank
CONST	ENDS
;	COMDAT ?_Rank@?$_Arithmetic_traits@F@std@@2HB
CONST	SEGMENT
?_Rank@?$_Arithmetic_traits@F@std@@2HB DD 03H		; std::_Arithmetic_traits<short>::_Rank
CONST	ENDS
;	COMDAT ?_Rank@?$_Arithmetic_traits@E@std@@2HB
CONST	SEGMENT
?_Rank@?$_Arithmetic_traits@E@std@@2HB DD 02H		; std::_Arithmetic_traits<unsigned char>::_Rank
CONST	ENDS
;	COMDAT ?_Rank@?$_Arithmetic_traits@C@std@@2HB
CONST	SEGMENT
?_Rank@?$_Arithmetic_traits@C@std@@2HB DD 02H		; std::_Arithmetic_traits<signed char>::_Rank
CONST	ENDS
;	COMDAT ?_Rank@?$_Arithmetic_traits@D@std@@2HB
CONST	SEGMENT
?_Rank@?$_Arithmetic_traits@D@std@@2HB DD 02H		; std::_Arithmetic_traits<char>::_Rank
CONST	ENDS
;	COMDAT ?_Rank@?$_Arithmetic_traits@_N@std@@2HB
CONST	SEGMENT
?_Rank@?$_Arithmetic_traits@_N@std@@2HB DD 01H		; std::_Arithmetic_traits<bool>::_Rank
CONST	ENDS
;	COMDAT ?value@?$integral_constant@I$0A@@tr1@std@@2IB
CONST	SEGMENT
?value@?$integral_constant@I$0A@@tr1@std@@2IB DD 00H	; std::tr1::integral_constant<unsigned int,0>::value
CONST	ENDS
;	COMDAT ?value@?$integral_constant@_N$00@tr1@std@@2_NB
CONST	SEGMENT
?value@?$integral_constant@_N$00@tr1@std@@2_NB DB 01H	; std::tr1::integral_constant<bool,1>::value
CONST	ENDS
;	COMDAT ?value@?$integral_constant@_N$0A@@tr1@std@@2_NB
CONST	SEGMENT
?value@?$integral_constant@_N$0A@@tr1@std@@2_NB DB 00H	; std::tr1::integral_constant<bool,0>::value
CONST	ENDS
;	COMDAT ?min_exponent10@?$numeric_limits@O@std@@2HB
CONST	SEGMENT
?min_exponent10@?$numeric_limits@O@std@@2HB DD 0fffffecdH ; std::numeric_limits<long double>::min_exponent10
CONST	ENDS
;	COMDAT ?min_exponent@?$numeric_limits@O@std@@2HB
CONST	SEGMENT
?min_exponent@?$numeric_limits@O@std@@2HB DD 0fffffc03H	; std::numeric_limits<long double>::min_exponent
CONST	ENDS
;	COMDAT ?max_exponent10@?$numeric_limits@O@std@@2HB
CONST	SEGMENT
?max_exponent10@?$numeric_limits@O@std@@2HB DD 0134H	; std::numeric_limits<long double>::max_exponent10
CONST	ENDS
;	COMDAT ?max_exponent@?$numeric_limits@O@std@@2HB
CONST	SEGMENT
?max_exponent@?$numeric_limits@O@std@@2HB DD 0400H	; std::numeric_limits<long double>::max_exponent
CONST	ENDS
;	COMDAT ?max_digits10@?$numeric_limits@O@std@@2HB
CONST	SEGMENT
?max_digits10@?$numeric_limits@O@std@@2HB DD 011H	; std::numeric_limits<long double>::max_digits10
CONST	ENDS
;	COMDAT ?digits10@?$numeric_limits@O@std@@2HB
CONST	SEGMENT
?digits10@?$numeric_limits@O@std@@2HB DD 0fH		; std::numeric_limits<long double>::digits10
CONST	ENDS
;	COMDAT ?digits@?$numeric_limits@O@std@@2HB
CONST	SEGMENT
?digits@?$numeric_limits@O@std@@2HB DD 035H		; std::numeric_limits<long double>::digits
CONST	ENDS
;	COMDAT ?min_exponent10@?$numeric_limits@N@std@@2HB
CONST	SEGMENT
?min_exponent10@?$numeric_limits@N@std@@2HB DD 0fffffecdH ; std::numeric_limits<double>::min_exponent10
CONST	ENDS
;	COMDAT ?min_exponent@?$numeric_limits@N@std@@2HB
CONST	SEGMENT
?min_exponent@?$numeric_limits@N@std@@2HB DD 0fffffc03H	; std::numeric_limits<double>::min_exponent
CONST	ENDS
;	COMDAT ?max_exponent10@?$numeric_limits@N@std@@2HB
CONST	SEGMENT
?max_exponent10@?$numeric_limits@N@std@@2HB DD 0134H	; std::numeric_limits<double>::max_exponent10
CONST	ENDS
;	COMDAT ?max_exponent@?$numeric_limits@N@std@@2HB
CONST	SEGMENT
?max_exponent@?$numeric_limits@N@std@@2HB DD 0400H	; std::numeric_limits<double>::max_exponent
CONST	ENDS
;	COMDAT ?max_digits10@?$numeric_limits@N@std@@2HB
CONST	SEGMENT
?max_digits10@?$numeric_limits@N@std@@2HB DD 011H	; std::numeric_limits<double>::max_digits10
CONST	ENDS
;	COMDAT ?digits10@?$numeric_limits@N@std@@2HB
CONST	SEGMENT
?digits10@?$numeric_limits@N@std@@2HB DD 0fH		; std::numeric_limits<double>::digits10
CONST	ENDS
;	COMDAT ?digits@?$numeric_limits@N@std@@2HB
CONST	SEGMENT
?digits@?$numeric_limits@N@std@@2HB DD 035H		; std::numeric_limits<double>::digits
CONST	ENDS
;	COMDAT ?min_exponent10@?$numeric_limits@M@std@@2HB
CONST	SEGMENT
?min_exponent10@?$numeric_limits@M@std@@2HB DD 0ffffffdbH ; std::numeric_limits<float>::min_exponent10
CONST	ENDS
;	COMDAT ?min_exponent@?$numeric_limits@M@std@@2HB
CONST	SEGMENT
?min_exponent@?$numeric_limits@M@std@@2HB DD 0ffffff83H	; std::numeric_limits<float>::min_exponent
CONST	ENDS
;	COMDAT ?max_exponent10@?$numeric_limits@M@std@@2HB
CONST	SEGMENT
?max_exponent10@?$numeric_limits@M@std@@2HB DD 026H	; std::numeric_limits<float>::max_exponent10
CONST	ENDS
;	COMDAT ?max_exponent@?$numeric_limits@M@std@@2HB
CONST	SEGMENT
?max_exponent@?$numeric_limits@M@std@@2HB DD 080H	; std::numeric_limits<float>::max_exponent
CONST	ENDS
;	COMDAT ?max_digits10@?$numeric_limits@M@std@@2HB
CONST	SEGMENT
?max_digits10@?$numeric_limits@M@std@@2HB DD 08H	; std::numeric_limits<float>::max_digits10
CONST	ENDS
;	COMDAT ?digits10@?$numeric_limits@M@std@@2HB
CONST	SEGMENT
?digits10@?$numeric_limits@M@std@@2HB DD 06H		; std::numeric_limits<float>::digits10
CONST	ENDS
;	COMDAT ?digits@?$numeric_limits@M@std@@2HB
CONST	SEGMENT
?digits@?$numeric_limits@M@std@@2HB DD 018H		; std::numeric_limits<float>::digits
CONST	ENDS
;	COMDAT ?max_digits10@?$numeric_limits@_K@std@@2HB
CONST	SEGMENT
?max_digits10@?$numeric_limits@_K@std@@2HB DD 015H	; std::numeric_limits<unsigned __int64>::max_digits10
CONST	ENDS
;	COMDAT ?digits10@?$numeric_limits@_K@std@@2HB
CONST	SEGMENT
?digits10@?$numeric_limits@_K@std@@2HB DD 013H		; std::numeric_limits<unsigned __int64>::digits10
CONST	ENDS
;	COMDAT ?digits@?$numeric_limits@_K@std@@2HB
CONST	SEGMENT
?digits@?$numeric_limits@_K@std@@2HB DD 040H		; std::numeric_limits<unsigned __int64>::digits
CONST	ENDS
;	COMDAT ?is_signed@?$numeric_limits@_K@std@@2_NB
CONST	SEGMENT
?is_signed@?$numeric_limits@_K@std@@2_NB DB 00H		; std::numeric_limits<unsigned __int64>::is_signed
CONST	ENDS
;	COMDAT ?max_digits10@?$numeric_limits@_J@std@@2HB
CONST	SEGMENT
?max_digits10@?$numeric_limits@_J@std@@2HB DD 014H	; std::numeric_limits<__int64>::max_digits10
CONST	ENDS
;	COMDAT ?digits10@?$numeric_limits@_J@std@@2HB
CONST	SEGMENT
?digits10@?$numeric_limits@_J@std@@2HB DD 012H		; std::numeric_limits<__int64>::digits10
CONST	ENDS
;	COMDAT ?digits@?$numeric_limits@_J@std@@2HB
CONST	SEGMENT
?digits@?$numeric_limits@_J@std@@2HB DD 03fH		; std::numeric_limits<__int64>::digits
CONST	ENDS
;	COMDAT ?is_signed@?$numeric_limits@_J@std@@2_NB
CONST	SEGMENT
?is_signed@?$numeric_limits@_J@std@@2_NB DB 01H		; std::numeric_limits<__int64>::is_signed
CONST	ENDS
;	COMDAT ?max_digits10@?$numeric_limits@K@std@@2HB
CONST	SEGMENT
?max_digits10@?$numeric_limits@K@std@@2HB DD 0bH	; std::numeric_limits<unsigned long>::max_digits10
CONST	ENDS
;	COMDAT ?digits10@?$numeric_limits@K@std@@2HB
CONST	SEGMENT
?digits10@?$numeric_limits@K@std@@2HB DD 09H		; std::numeric_limits<unsigned long>::digits10
CONST	ENDS
;	COMDAT ?digits@?$numeric_limits@K@std@@2HB
CONST	SEGMENT
?digits@?$numeric_limits@K@std@@2HB DD 020H		; std::numeric_limits<unsigned long>::digits
CONST	ENDS
;	COMDAT ?is_signed@?$numeric_limits@K@std@@2_NB
CONST	SEGMENT
?is_signed@?$numeric_limits@K@std@@2_NB DB 00H		; std::numeric_limits<unsigned long>::is_signed
CONST	ENDS
;	COMDAT ?max_digits10@?$numeric_limits@J@std@@2HB
CONST	SEGMENT
?max_digits10@?$numeric_limits@J@std@@2HB DD 0bH	; std::numeric_limits<long>::max_digits10
CONST	ENDS
;	COMDAT ?digits10@?$numeric_limits@J@std@@2HB
CONST	SEGMENT
?digits10@?$numeric_limits@J@std@@2HB DD 09H		; std::numeric_limits<long>::digits10
CONST	ENDS
;	COMDAT ?digits@?$numeric_limits@J@std@@2HB
CONST	SEGMENT
?digits@?$numeric_limits@J@std@@2HB DD 01fH		; std::numeric_limits<long>::digits
CONST	ENDS
;	COMDAT ?is_signed@?$numeric_limits@J@std@@2_NB
CONST	SEGMENT
?is_signed@?$numeric_limits@J@std@@2_NB DB 01H		; std::numeric_limits<long>::is_signed
CONST	ENDS
;	COMDAT ?max_digits10@?$numeric_limits@I@std@@2HB
CONST	SEGMENT
?max_digits10@?$numeric_limits@I@std@@2HB DD 0bH	; std::numeric_limits<unsigned int>::max_digits10
CONST	ENDS
;	COMDAT ?digits10@?$numeric_limits@I@std@@2HB
CONST	SEGMENT
?digits10@?$numeric_limits@I@std@@2HB DD 09H		; std::numeric_limits<unsigned int>::digits10
CONST	ENDS
;	COMDAT ?digits@?$numeric_limits@I@std@@2HB
CONST	SEGMENT
?digits@?$numeric_limits@I@std@@2HB DD 020H		; std::numeric_limits<unsigned int>::digits
CONST	ENDS
;	COMDAT ?is_signed@?$numeric_limits@I@std@@2_NB
CONST	SEGMENT
?is_signed@?$numeric_limits@I@std@@2_NB DB 00H		; std::numeric_limits<unsigned int>::is_signed
CONST	ENDS
;	COMDAT ?max_digits10@?$numeric_limits@H@std@@2HB
CONST	SEGMENT
?max_digits10@?$numeric_limits@H@std@@2HB DD 0bH	; std::numeric_limits<int>::max_digits10
CONST	ENDS
;	COMDAT ?digits10@?$numeric_limits@H@std@@2HB
CONST	SEGMENT
?digits10@?$numeric_limits@H@std@@2HB DD 09H		; std::numeric_limits<int>::digits10
CONST	ENDS
;	COMDAT ?digits@?$numeric_limits@H@std@@2HB
CONST	SEGMENT
?digits@?$numeric_limits@H@std@@2HB DD 01fH		; std::numeric_limits<int>::digits
CONST	ENDS
;	COMDAT ?is_signed@?$numeric_limits@H@std@@2_NB
CONST	SEGMENT
?is_signed@?$numeric_limits@H@std@@2_NB DB 01H		; std::numeric_limits<int>::is_signed
CONST	ENDS
;	COMDAT ?max_digits10@?$numeric_limits@G@std@@2HB
CONST	SEGMENT
?max_digits10@?$numeric_limits@G@std@@2HB DD 06H	; std::numeric_limits<unsigned short>::max_digits10
CONST	ENDS
;	COMDAT ?digits10@?$numeric_limits@G@std@@2HB
CONST	SEGMENT
?digits10@?$numeric_limits@G@std@@2HB DD 04H		; std::numeric_limits<unsigned short>::digits10
CONST	ENDS
;	COMDAT ?digits@?$numeric_limits@G@std@@2HB
CONST	SEGMENT
?digits@?$numeric_limits@G@std@@2HB DD 010H		; std::numeric_limits<unsigned short>::digits
CONST	ENDS
;	COMDAT ?is_signed@?$numeric_limits@G@std@@2_NB
CONST	SEGMENT
?is_signed@?$numeric_limits@G@std@@2_NB DB 00H		; std::numeric_limits<unsigned short>::is_signed
CONST	ENDS
;	COMDAT ?max_digits10@?$numeric_limits@F@std@@2HB
CONST	SEGMENT
?max_digits10@?$numeric_limits@F@std@@2HB DD 06H	; std::numeric_limits<short>::max_digits10
CONST	ENDS
;	COMDAT ?digits10@?$numeric_limits@F@std@@2HB
CONST	SEGMENT
?digits10@?$numeric_limits@F@std@@2HB DD 04H		; std::numeric_limits<short>::digits10
CONST	ENDS
;	COMDAT ?digits@?$numeric_limits@F@std@@2HB
CONST	SEGMENT
?digits@?$numeric_limits@F@std@@2HB DD 0fH		; std::numeric_limits<short>::digits
CONST	ENDS
;	COMDAT ?is_signed@?$numeric_limits@F@std@@2_NB
CONST	SEGMENT
?is_signed@?$numeric_limits@F@std@@2_NB DB 01H		; std::numeric_limits<short>::is_signed
CONST	ENDS
;	COMDAT ?max_digits10@?$numeric_limits@E@std@@2HB
CONST	SEGMENT
?max_digits10@?$numeric_limits@E@std@@2HB DD 04H	; std::numeric_limits<unsigned char>::max_digits10
CONST	ENDS
;	COMDAT ?digits10@?$numeric_limits@E@std@@2HB
CONST	SEGMENT
?digits10@?$numeric_limits@E@std@@2HB DD 02H		; std::numeric_limits<unsigned char>::digits10
CONST	ENDS
;	COMDAT ?digits@?$numeric_limits@E@std@@2HB
CONST	SEGMENT
?digits@?$numeric_limits@E@std@@2HB DD 08H		; std::numeric_limits<unsigned char>::digits
CONST	ENDS
;	COMDAT ?is_signed@?$numeric_limits@E@std@@2_NB
CONST	SEGMENT
?is_signed@?$numeric_limits@E@std@@2_NB DB 00H		; std::numeric_limits<unsigned char>::is_signed
CONST	ENDS
;	COMDAT ?max_digits10@?$numeric_limits@C@std@@2HB
CONST	SEGMENT
?max_digits10@?$numeric_limits@C@std@@2HB DD 04H	; std::numeric_limits<signed char>::max_digits10
CONST	ENDS
;	COMDAT ?digits10@?$numeric_limits@C@std@@2HB
CONST	SEGMENT
?digits10@?$numeric_limits@C@std@@2HB DD 02H		; std::numeric_limits<signed char>::digits10
CONST	ENDS
;	COMDAT ?digits@?$numeric_limits@C@std@@2HB
CONST	SEGMENT
?digits@?$numeric_limits@C@std@@2HB DD 07H		; std::numeric_limits<signed char>::digits
CONST	ENDS
;	COMDAT ?is_signed@?$numeric_limits@C@std@@2_NB
CONST	SEGMENT
?is_signed@?$numeric_limits@C@std@@2_NB DB 01H		; std::numeric_limits<signed char>::is_signed
CONST	ENDS
;	COMDAT ?max_digits10@?$numeric_limits@_N@std@@2HB
CONST	SEGMENT
?max_digits10@?$numeric_limits@_N@std@@2HB DD 00H	; std::numeric_limits<bool>::max_digits10
CONST	ENDS
;	COMDAT ?digits10@?$numeric_limits@_N@std@@2HB
CONST	SEGMENT
?digits10@?$numeric_limits@_N@std@@2HB DD 00H		; std::numeric_limits<bool>::digits10
CONST	ENDS
;	COMDAT ?digits@?$numeric_limits@_N@std@@2HB
CONST	SEGMENT
?digits@?$numeric_limits@_N@std@@2HB DD 01H		; std::numeric_limits<bool>::digits
CONST	ENDS
;	COMDAT ?is_signed@?$numeric_limits@_N@std@@2_NB
CONST	SEGMENT
?is_signed@?$numeric_limits@_N@std@@2_NB DB 00H		; std::numeric_limits<bool>::is_signed
CONST	ENDS
;	COMDAT ?is_modulo@?$numeric_limits@_N@std@@2_NB
CONST	SEGMENT
?is_modulo@?$numeric_limits@_N@std@@2_NB DB 00H		; std::numeric_limits<bool>::is_modulo
CONST	ENDS
;	COMDAT ?max_digits10@?$numeric_limits@_W@std@@2HB
CONST	SEGMENT
?max_digits10@?$numeric_limits@_W@std@@2HB DD 06H	; std::numeric_limits<wchar_t>::max_digits10
CONST	ENDS
;	COMDAT ?digits10@?$numeric_limits@_W@std@@2HB
CONST	SEGMENT
?digits10@?$numeric_limits@_W@std@@2HB DD 04H		; std::numeric_limits<wchar_t>::digits10
CONST	ENDS
;	COMDAT ?digits@?$numeric_limits@_W@std@@2HB
CONST	SEGMENT
?digits@?$numeric_limits@_W@std@@2HB DD 010H		; std::numeric_limits<wchar_t>::digits
CONST	ENDS
;	COMDAT ?is_signed@?$numeric_limits@_W@std@@2_NB
CONST	SEGMENT
?is_signed@?$numeric_limits@_W@std@@2_NB DB 00H		; std::numeric_limits<wchar_t>::is_signed
CONST	ENDS
;	COMDAT ?max_digits10@?$numeric_limits@D@std@@2HB
CONST	SEGMENT
?max_digits10@?$numeric_limits@D@std@@2HB DD 04H	; std::numeric_limits<char>::max_digits10
CONST	ENDS
;	COMDAT ?digits10@?$numeric_limits@D@std@@2HB
CONST	SEGMENT
?digits10@?$numeric_limits@D@std@@2HB DD 02H		; std::numeric_limits<char>::digits10
CONST	ENDS
;	COMDAT ?digits@?$numeric_limits@D@std@@2HB
CONST	SEGMENT
?digits@?$numeric_limits@D@std@@2HB DD 07H		; std::numeric_limits<char>::digits
CONST	ENDS
;	COMDAT ?is_signed@?$numeric_limits@D@std@@2_NB
CONST	SEGMENT
?is_signed@?$numeric_limits@D@std@@2_NB DB 01H		; std::numeric_limits<char>::is_signed
CONST	ENDS
;	COMDAT ?radix@_Num_float_base@std@@2HB
CONST	SEGMENT
?radix@_Num_float_base@std@@2HB DD 02H			; std::_Num_float_base::radix
CONST	ENDS
;	COMDAT ?round_style@_Num_float_base@std@@2W4float_round_style@2@B
CONST	SEGMENT
?round_style@_Num_float_base@std@@2W4float_round_style@2@B DD 01H ; std::_Num_float_base::round_style
CONST	ENDS
;	COMDAT ?traps@_Num_float_base@std@@2_NB
CONST	SEGMENT
?traps@_Num_float_base@std@@2_NB DB 01H			; std::_Num_float_base::traps
CONST	ENDS
;	COMDAT ?tinyness_before@_Num_float_base@std@@2_NB
CONST	SEGMENT
?tinyness_before@_Num_float_base@std@@2_NB DB 01H	; std::_Num_float_base::tinyness_before
CONST	ENDS
;	COMDAT ?is_specialized@_Num_float_base@std@@2_NB
CONST	SEGMENT
?is_specialized@_Num_float_base@std@@2_NB DB 01H	; std::_Num_float_base::is_specialized
CONST	ENDS
;	COMDAT ?is_signed@_Num_float_base@std@@2_NB
CONST	SEGMENT
?is_signed@_Num_float_base@std@@2_NB DB 01H		; std::_Num_float_base::is_signed
CONST	ENDS
;	COMDAT ?is_modulo@_Num_float_base@std@@2_NB
CONST	SEGMENT
?is_modulo@_Num_float_base@std@@2_NB DB 00H		; std::_Num_float_base::is_modulo
CONST	ENDS
;	COMDAT ?is_integer@_Num_float_base@std@@2_NB
CONST	SEGMENT
?is_integer@_Num_float_base@std@@2_NB DB 00H		; std::_Num_float_base::is_integer
CONST	ENDS
;	COMDAT ?is_iec559@_Num_float_base@std@@2_NB
CONST	SEGMENT
?is_iec559@_Num_float_base@std@@2_NB DB 01H		; std::_Num_float_base::is_iec559
CONST	ENDS
;	COMDAT ?is_exact@_Num_float_base@std@@2_NB
CONST	SEGMENT
?is_exact@_Num_float_base@std@@2_NB DB 00H		; std::_Num_float_base::is_exact
CONST	ENDS
;	COMDAT ?is_bounded@_Num_float_base@std@@2_NB
CONST	SEGMENT
?is_bounded@_Num_float_base@std@@2_NB DB 01H		; std::_Num_float_base::is_bounded
CONST	ENDS
;	COMDAT ?has_signaling_NaN@_Num_float_base@std@@2_NB
CONST	SEGMENT
?has_signaling_NaN@_Num_float_base@std@@2_NB DB 01H	; std::_Num_float_base::has_signaling_NaN
CONST	ENDS
;	COMDAT ?has_quiet_NaN@_Num_float_base@std@@2_NB
CONST	SEGMENT
?has_quiet_NaN@_Num_float_base@std@@2_NB DB 01H		; std::_Num_float_base::has_quiet_NaN
CONST	ENDS
;	COMDAT ?has_infinity@_Num_float_base@std@@2_NB
CONST	SEGMENT
?has_infinity@_Num_float_base@std@@2_NB DB 01H		; std::_Num_float_base::has_infinity
CONST	ENDS
;	COMDAT ?has_denorm_loss@_Num_float_base@std@@2_NB
CONST	SEGMENT
?has_denorm_loss@_Num_float_base@std@@2_NB DB 01H	; std::_Num_float_base::has_denorm_loss
CONST	ENDS
;	COMDAT ?has_denorm@_Num_float_base@std@@2W4float_denorm_style@2@B
CONST	SEGMENT
?has_denorm@_Num_float_base@std@@2W4float_denorm_style@2@B DD 01H ; std::_Num_float_base::has_denorm
CONST	ENDS
;	COMDAT ?radix@_Num_int_base@std@@2HB
CONST	SEGMENT
?radix@_Num_int_base@std@@2HB DD 02H			; std::_Num_int_base::radix
CONST	ENDS
;	COMDAT ?is_specialized@_Num_int_base@std@@2_NB
CONST	SEGMENT
?is_specialized@_Num_int_base@std@@2_NB DB 01H		; std::_Num_int_base::is_specialized
CONST	ENDS
;	COMDAT ?is_modulo@_Num_int_base@std@@2_NB
CONST	SEGMENT
?is_modulo@_Num_int_base@std@@2_NB DB 01H		; std::_Num_int_base::is_modulo
CONST	ENDS
;	COMDAT ?is_integer@_Num_int_base@std@@2_NB
CONST	SEGMENT
?is_integer@_Num_int_base@std@@2_NB DB 01H		; std::_Num_int_base::is_integer
CONST	ENDS
;	COMDAT ?is_exact@_Num_int_base@std@@2_NB
CONST	SEGMENT
?is_exact@_Num_int_base@std@@2_NB DB 01H		; std::_Num_int_base::is_exact
CONST	ENDS
;	COMDAT ?is_bounded@_Num_int_base@std@@2_NB
CONST	SEGMENT
?is_bounded@_Num_int_base@std@@2_NB DB 01H		; std::_Num_int_base::is_bounded
CONST	ENDS
;	COMDAT ?radix@_Num_base@std@@2HB
CONST	SEGMENT
?radix@_Num_base@std@@2HB DD 00H			; std::_Num_base::radix
CONST	ENDS
;	COMDAT ?min_exponent10@_Num_base@std@@2HB
CONST	SEGMENT
?min_exponent10@_Num_base@std@@2HB DD 00H		; std::_Num_base::min_exponent10
CONST	ENDS
;	COMDAT ?min_exponent@_Num_base@std@@2HB
CONST	SEGMENT
?min_exponent@_Num_base@std@@2HB DD 00H			; std::_Num_base::min_exponent
CONST	ENDS
;	COMDAT ?max_exponent10@_Num_base@std@@2HB
CONST	SEGMENT
?max_exponent10@_Num_base@std@@2HB DD 00H		; std::_Num_base::max_exponent10
CONST	ENDS
;	COMDAT ?max_exponent@_Num_base@std@@2HB
CONST	SEGMENT
?max_exponent@_Num_base@std@@2HB DD 00H			; std::_Num_base::max_exponent
CONST	ENDS
;	COMDAT ?max_digits10@_Num_base@std@@2HB
CONST	SEGMENT
?max_digits10@_Num_base@std@@2HB DD 00H			; std::_Num_base::max_digits10
CONST	ENDS
;	COMDAT ?digits10@_Num_base@std@@2HB
CONST	SEGMENT
?digits10@_Num_base@std@@2HB DD 00H			; std::_Num_base::digits10
CONST	ENDS
;	COMDAT ?digits@_Num_base@std@@2HB
CONST	SEGMENT
?digits@_Num_base@std@@2HB DD 00H			; std::_Num_base::digits
CONST	ENDS
;	COMDAT ?round_style@_Num_base@std@@2W4float_round_style@2@B
CONST	SEGMENT
?round_style@_Num_base@std@@2W4float_round_style@2@B DD 00H ; std::_Num_base::round_style
CONST	ENDS
;	COMDAT ?traps@_Num_base@std@@2_NB
CONST	SEGMENT
?traps@_Num_base@std@@2_NB DB 00H			; std::_Num_base::traps
CONST	ENDS
;	COMDAT ?tinyness_before@_Num_base@std@@2_NB
CONST	SEGMENT
?tinyness_before@_Num_base@std@@2_NB DB 00H		; std::_Num_base::tinyness_before
CONST	ENDS
;	COMDAT ?is_specialized@_Num_base@std@@2_NB
CONST	SEGMENT
?is_specialized@_Num_base@std@@2_NB DB 00H		; std::_Num_base::is_specialized
CONST	ENDS
;	COMDAT ?is_signed@_Num_base@std@@2_NB
CONST	SEGMENT
?is_signed@_Num_base@std@@2_NB DB 00H			; std::_Num_base::is_signed
CONST	ENDS
;	COMDAT ?is_modulo@_Num_base@std@@2_NB
CONST	SEGMENT
?is_modulo@_Num_base@std@@2_NB DB 00H			; std::_Num_base::is_modulo
CONST	ENDS
;	COMDAT ?is_integer@_Num_base@std@@2_NB
CONST	SEGMENT
?is_integer@_Num_base@std@@2_NB DB 00H			; std::_Num_base::is_integer
CONST	ENDS
;	COMDAT ?is_iec559@_Num_base@std@@2_NB
CONST	SEGMENT
?is_iec559@_Num_base@std@@2_NB DB 00H			; std::_Num_base::is_iec559
CONST	ENDS
;	COMDAT ?is_exact@_Num_base@std@@2_NB
CONST	SEGMENT
?is_exact@_Num_base@std@@2_NB DB 00H			; std::_Num_base::is_exact
CONST	ENDS
;	COMDAT ?is_bounded@_Num_base@std@@2_NB
CONST	SEGMENT
?is_bounded@_Num_base@std@@2_NB DB 00H			; std::_Num_base::is_bounded
CONST	ENDS
;	COMDAT ?has_signaling_NaN@_Num_base@std@@2_NB
CONST	SEGMENT
?has_signaling_NaN@_Num_base@std@@2_NB DB 00H		; std::_Num_base::has_signaling_NaN
CONST	ENDS
;	COMDAT ?has_quiet_NaN@_Num_base@std@@2_NB
CONST	SEGMENT
?has_quiet_NaN@_Num_base@std@@2_NB DB 00H		; std::_Num_base::has_quiet_NaN
CONST	ENDS
;	COMDAT ?has_infinity@_Num_base@std@@2_NB
CONST	SEGMENT
?has_infinity@_Num_base@std@@2_NB DB 00H		; std::_Num_base::has_infinity
CONST	ENDS
;	COMDAT ?has_denorm_loss@_Num_base@std@@2_NB
CONST	SEGMENT
?has_denorm_loss@_Num_base@std@@2_NB DB 00H		; std::_Num_base::has_denorm_loss
CONST	ENDS
;	COMDAT ?has_denorm@_Num_base@std@@2W4float_denorm_style@2@B
CONST	SEGMENT
?has_denorm@_Num_base@std@@2W4float_denorm_style@2@B DD 00H ; std::_Num_base::has_denorm
PUBLIC	__$ArrayPad$
PUBLIC	?WndProcAbout@@YGJPAUHWND__@@IIJ@Z		; WndProcAbout
; Function compile flags: /Ogtp
;	COMDAT ?WndProcAbout@@YGJPAUHWND__@@IIJ@Z
_TEXT	SEGMENT
_ps$100279 = -72					; size = 64
__$ArrayPad$ = -4					; size = 4
_hWnd$ = 8						; size = 4
_msg$ = 12						; size = 4
_wParam$ = 16						; size = 4
_lParam$ = 20						; size = 4
?WndProcAbout@@YGJPAUHWND__@@IIJ@Z PROC			; WndProcAbout, COMDAT
; File c:\users\administrator\documents\visual studio 2010\projects\supermario__\supermario_\supermario\cengine.cpp
; Line 28
	push	ebp
	mov	ebp, esp
	and	esp, -8					; fffffff8H
	sub	esp, 76					; 0000004cH
	mov	eax, DWORD PTR ___security_cookie
	xor	eax, esp
	mov	DWORD PTR __$ArrayPad$[esp+76], eax
; Line 37
	mov	eax, DWORD PTR _msg$[ebp]
	push	ebx
	push	esi
	push	edi
	mov	edi, DWORD PTR _hWnd$[ebp]
	mov	ebx, 485				; 000001e5H
	cmp	eax, 15					; 0000000fH
	je	SHORT $LN5@WndProcAbo
	mov	ecx, DWORD PTR _wParam$[ebp]
	cmp	eax, 258				; 00000102H
	jne	SHORT $LN3@WndProcAbo
; Line 46
	cmp	ecx, 101				; 00000065H
	je	SHORT $LN2@WndProcAbo
	cmp	ecx, 69					; 00000045H
	je	SHORT $LN2@WndProcAbo
$LN3@WndProcAbo:
; Line 51
	mov	edx, DWORD PTR _lParam$[ebp]
	push	edx
	push	ecx
	push	eax
	push	edi
	call	DWORD PTR __imp__DefWindowProcA@16
; Line 53
	pop	edi
	pop	esi
	pop	ebx
	mov	ecx, DWORD PTR __$ArrayPad$[esp+76]
	xor	ecx, esp
	call	@__security_check_cookie@4
	mov	esp, ebp
	pop	ebp
	ret	16					; 00000010H
$LN2@WndProcAbo:
; Line 47
	push	0
	push	edi
	call	DWORD PTR __imp__ShowWindow@8
; Line 48
	jmp	SHORT $LN10@WndProcAbo
$LN5@WndProcAbo:
; Line 40
	lea	eax, DWORD PTR _ps$100279[esp+88]
	push	eax
	push	edi
	call	DWORD PTR __imp__BeginPaint@8
	mov	esi, eax
; Line 41
	push	esi
	call	?DrawMirror@CGdiBmp@@QAEXPAUHDC__@@HHH@Z ; CGdiBmp::DrawMirror
; Line 42
	sub	esp, 16					; 00000010H
	mov	eax, esp
	mov	DWORD PTR [eax], ebx
	mov	ecx, 336				; 00000150H
	mov	DWORD PTR [eax+4], ecx
	mov	ecx, 600				; 00000258H
	mov	DWORD PTR [eax+8], ecx
	mov	ecx, 416				; 000001a0H
	mov	DWORD PTR [eax+12], ecx
	push	19					; 00000013H
	mov	ecx, OFFSET ??_C@_04JBPPCJCH@?$LK?Z?L?e?$AA@
	mov	ebx, OFFSET ??_C@_07GCMGIOFP@Exit?$FLE?$FN?$AA@
	call	?DrawWords@CGdiBmp@@SAXPAUHDC__@@PADKHPBDUtagRECT@@H@Z ; CGdiBmp::DrawWords
	add	esp, 20					; 00000014H
; Line 43
	lea	ecx, DWORD PTR _ps$100279[esp+88]
	push	ecx
	push	edi
	call	DWORD PTR __imp__EndPaint@8
$LN10@WndProcAbo:
; Line 53
	mov	ecx, DWORD PTR __$ArrayPad$[esp+88]
	pop	edi
	pop	esi
	pop	ebx
	xor	ecx, esp
	xor	eax, eax
	call	@__security_check_cookie@4
	mov	esp, ebp
	pop	ebp
	ret	16					; 00000010H
?WndProcAbout@@YGJPAUHWND__@@IIJ@Z ENDP			; WndProcAbout
; Function compile flags: /Ogtp
_TEXT	ENDS
;	COMDAT ?SetWindow@CEngine@@QAEXPAUHWND__@@@Z
_TEXT	SEGMENT
?SetWindow@CEngine@@QAEXPAUHWND__@@@Z PROC		; CEngine::SetWindow, COMDAT
; _this$ = eax
; _hWindow$ = ecx
; File c:\users\administrator\documents\visual studio 2010\projects\supermario__\supermario_\supermario\cengine.h
; Line 89
	mov	DWORD PTR [eax+208], ecx
; Line 90
	ret	0
?SetWindow@CEngine@@QAEXPAUHWND__@@@Z ENDP		; CEngine::SetWindow
; Function compile flags: /Ogtp
_TEXT	ENDS
;	COMDAT ?GetFrameSpeed@CEngine@@QAEHXZ
_TEXT	SEGMENT
?GetFrameSpeed@CEngine@@QAEHXZ PROC			; CEngine::GetFrameSpeed, COMDAT
; _this$ = eax
; Line 77
	mov	eax, DWORD PTR [eax+204]
; Line 78
	ret	0
?GetFrameSpeed@CEngine@@QAEHXZ ENDP			; CEngine::GetFrameSpeed
; Function compile flags: /Ogtp
_TEXT	ENDS
;	COMDAT ?SetSleep@CEngine@@QAEXH@Z
_TEXT	SEGMENT
?SetSleep@CEngine@@QAEXH@Z PROC				; CEngine::SetSleep, COMDAT
; _this$ = eax
; _asleep$ = ecx
; Line 73
	mov	DWORD PTR [eax+200], ecx
; Line 74
	ret	0
?SetSleep@CEngine@@QAEXH@Z ENDP				; CEngine::SetSleep
; Function compile flags: /Ogtp
_TEXT	ENDS
;	COMDAT ?GetSleep@CEngine@@QAEHXZ
_TEXT	SEGMENT
?GetSleep@CEngine@@QAEHXZ PROC				; CEngine::GetSleep, COMDAT
; _this$ = eax
; Line 69
	mov	eax, DWORD PTR [eax+200]
; Line 70
	ret	0
?GetSleep@CEngine@@QAEHXZ ENDP				; CEngine::GetSleep
; Function compile flags: /Ogtp
_TEXT	ENDS
;	COMDAT ?GetEngine@CEngine@@SAPAV1@XZ
_TEXT	SEGMENT
?GetEngine@CEngine@@SAPAV1@XZ PROC			; CEngine::GetEngine, COMDAT
; Line 61
	mov	eax, DWORD PTR ?pEngine@CEngine@@1PAV1@A ; CEngine::pEngine
; Line 62
	ret	0
?GetEngine@CEngine@@SAPAV1@XZ ENDP			; CEngine::GetEngine
; Function compile flags: /Ogtp
;	COMDAT ??_GCDesktop@@QAEPAXI@Z
_TEXT	SEGMENT
??_GCDesktop@@QAEPAXI@Z PROC				; CDesktop::`scalar deleting destructor', COMDAT
; _this$ = esi
	cmp	BYTE PTR [esi+156], 0
	je	SHORT $LN6@scalar@10
	push	0
	push	esi
	call	DWORD PTR __imp__ChangeDisplaySettingsA@8
	mov	BYTE PTR [esi+156], 0
$LN6@scalar@10:
	push	esi
	call	??3@YAXPAX@Z				; operator delete
	add	esp, 4
	mov	eax, esi
	ret	0
??_GCDesktop@@QAEPAXI@Z ENDP				; CDesktop::`scalar deleting destructor'
_TEXT	ENDS
PUBLIC	??1CEngine@@UAE@XZ				; CEngine::~CEngine
;	COMDAT xdata$x
; File c:\users\administrator\documents\visual studio 2010\projects\supermario__\supermario_\supermario\cgdibmp.cpp
xdata$x	SEGMENT
__unwindtable$??1CEngine@@UAE@XZ DD 0ffffffffH
	DD	FLAT:__unwindfunclet$??1CEngine@@UAE@XZ$0
__ehfuncinfo$??1CEngine@@UAE@XZ DD 019930522H
	DD	01H
	DD	FLAT:__unwindtable$??1CEngine@@UAE@XZ
	DD	2 DUP(00H)
	DD	2 DUP(00H)
	DD	00H
	DD	01H
; Function compile flags: /Ogtp
xdata$x	ENDS
;	COMDAT ??1CEngine@@UAE@XZ
_TEXT	SEGMENT
_this$ = -16						; size = 4
__$EHRec$ = -12						; size = 12
??1CEngine@@UAE@XZ PROC					; CEngine::~CEngine, COMDAT
; _this$ = ecx
; File c:\users\administrator\documents\visual studio 2010\projects\supermario__\supermario_\supermario\cengine.cpp
; Line 130
	push	ebp
	mov	ebp, esp
	push	-1
	push	__ehhandler$??1CEngine@@UAE@XZ
	mov	eax, DWORD PTR fs:0
	push	eax
	push	ecx
	push	esi
	push	edi
	mov	eax, DWORD PTR ___security_cookie
	xor	eax, ebp
	push	eax
	lea	eax, DWORD PTR __$EHRec$[ebp]
	mov	DWORD PTR fs:0, eax
	mov	esi, ecx
	mov	DWORD PTR _this$[ebp], esi
	mov	DWORD PTR [esi], OFFSET ??_7CEngine@@6B@
	mov	DWORD PTR __$EHRec$[ebp+8], 0
; Line 131
	mov	edi, DWORD PTR [esi+196]
	test	edi, edi
	je	SHORT $LN6@CEngine
	cmp	BYTE PTR [edi+156], 0
	je	SHORT $LN11@CEngine
	push	0
	push	edi
	call	DWORD PTR __imp__ChangeDisplaySettingsA@8
	mov	BYTE PTR [edi+156], 0
$LN11@CEngine:
	push	edi
	call	??3@YAXPAX@Z				; operator delete
	add	esp, 4
$LN6@CEngine:
; Line 132
	mov	eax, DWORD PTR [esi+4]
	mov	DWORD PTR [esi], OFFSET ??_7CGdiBmp@@6B@
	test	eax, eax
	je	SHORT $LN16@CEngine
	push	eax
	call	DWORD PTR __imp__DeleteObject@4
	mov	DWORD PTR [esi+4], 0
$LN16@CEngine:
	mov	ecx, DWORD PTR __$EHRec$[ebp]
	mov	DWORD PTR fs:0, ecx
	pop	ecx
	pop	edi
	pop	esi
	mov	esp, ebp
	pop	ebp
	ret	0
_TEXT	ENDS
;	COMDAT text$x
text$x	SEGMENT
__unwindfunclet$??1CEngine@@UAE@XZ$0:
	mov	ecx, DWORD PTR _this$[ebp]
	jmp	??1CGdiBmp@@UAE@XZ			; CGdiBmp::~CGdiBmp
__ehhandler$??1CEngine@@UAE@XZ:
	mov	edx, DWORD PTR [esp+8]
	lea	eax, DWORD PTR [edx+12]
	mov	ecx, DWORD PTR [edx-16]
	xor	ecx, eax
	call	@__security_check_cookie@4
	mov	eax, OFFSET __ehfuncinfo$??1CEngine@@UAE@XZ
	jmp	___CxxFrameHandler3
text$x	ENDS
??1CEngine@@UAE@XZ ENDP					; CEngine::~CEngine
;	COMDAT xdata$x
xdata$x	SEGMENT
__unwindtable$??_GCEngine@@UAEPAXI@Z DD 0ffffffffH
	DD	FLAT:__unwindfunclet$??_GCEngine@@UAEPAXI@Z$0
__ehfuncinfo$??_GCEngine@@UAEPAXI@Z DD 019930522H
	DD	01H
	DD	FLAT:__unwindtable$??_GCEngine@@UAEPAXI@Z
	DD	2 DUP(00H)
	DD	2 DUP(00H)
	DD	00H
	DD	01H
; Function compile flags: /Ogtp
xdata$x	ENDS
;	COMDAT ??_GCEngine@@UAEPAXI@Z
_TEXT	SEGMENT
_this$ = -16						; size = 4
__$EHRec$ = -12						; size = 12
___flags$ = 8						; size = 4
??_GCEngine@@UAEPAXI@Z PROC				; CEngine::`scalar deleting destructor', COMDAT
; _this$ = ecx
	push	ebp
	mov	ebp, esp
	push	-1
	push	__ehhandler$??_GCEngine@@UAEPAXI@Z
	mov	eax, DWORD PTR fs:0
	push	eax
	push	ecx
	push	esi
	push	edi
	mov	eax, DWORD PTR ___security_cookie
	xor	eax, ebp
	push	eax
	lea	eax, DWORD PTR __$EHRec$[ebp]
	mov	DWORD PTR fs:0, eax
	mov	esi, ecx
	mov	DWORD PTR _this$[ebp], esi
	mov	DWORD PTR [esi], OFFSET ??_7CEngine@@6B@
	mov	DWORD PTR __$EHRec$[ebp+8], 0
	mov	edi, DWORD PTR [esi+196]
	test	edi, edi
	je	SHORT $LN9@scalar@11
	cmp	BYTE PTR [edi+156], 0
	je	SHORT $LN14@scalar@11
	push	0
	push	edi
	call	DWORD PTR __imp__ChangeDisplaySettingsA@8
	mov	BYTE PTR [edi+156], 0
$LN14@scalar@11:
	push	edi
	call	??3@YAXPAX@Z				; operator delete
	add	esp, 4
$LN9@scalar@11:
	mov	DWORD PTR __$EHRec$[ebp+8], -1
	mov	eax, DWORD PTR [esi+4]
	mov	DWORD PTR [esi], OFFSET ??_7CGdiBmp@@6B@
	test	eax, eax
	je	SHORT $LN19@scalar@11
	push	eax
	call	DWORD PTR __imp__DeleteObject@4
	mov	DWORD PTR [esi+4], 0
$LN19@scalar@11:
	test	BYTE PTR ___flags$[ebp], 1
	je	SHORT $LN22@scalar@11
	push	esi
	call	??3@YAXPAX@Z				; operator delete
	add	esp, 4
$LN22@scalar@11:
	mov	eax, esi
	mov	ecx, DWORD PTR __$EHRec$[ebp]
	mov	DWORD PTR fs:0, ecx
	pop	ecx
	pop	edi
	pop	esi
	mov	esp, ebp
	pop	ebp
	ret	4
_TEXT	ENDS
;	COMDAT text$x
text$x	SEGMENT
__unwindfunclet$??_GCEngine@@UAEPAXI@Z$0:
	mov	ecx, DWORD PTR _this$[ebp]
	jmp	??1CGdiBmp@@UAE@XZ			; CGdiBmp::~CGdiBmp
__ehhandler$??_GCEngine@@UAEPAXI@Z:
	mov	edx, DWORD PTR [esp+8]
	lea	eax, DWORD PTR [edx+12]
	mov	ecx, DWORD PTR [edx-16]
	xor	ecx, eax
	call	@__security_check_cookie@4
	mov	eax, OFFSET __ehfuncinfo$??_GCEngine@@UAEPAXI@Z
	jmp	___CxxFrameHandler3
text$x	ENDS
??_GCEngine@@UAEPAXI@Z ENDP				; CEngine::`scalar deleting destructor'
PUBLIC	??0CEngine@@QAE@PAUHINSTANCE__@@PAD1HH@Z	; CEngine::CEngine
;	COMDAT xdata$x
; File c:\users\administrator\documents\visual studio 2010\projects\supermario__\supermario_\supermario\cgdibmp.cpp
xdata$x	SEGMENT
__unwindtable$??0CEngine@@QAE@PAUHINSTANCE__@@PAD1HH@Z DD 0ffffffffH
	DD	FLAT:__unwindfunclet$??0CEngine@@QAE@PAUHINSTANCE__@@PAD1HH@Z$0
__ehfuncinfo$??0CEngine@@QAE@PAUHINSTANCE__@@PAD1HH@Z DD 019930522H
	DD	01H
	DD	FLAT:__unwindtable$??0CEngine@@QAE@PAUHINSTANCE__@@PAD1HH@Z
	DD	2 DUP(00H)
	DD	2 DUP(00H)
	DD	00H
	DD	01H
; Function compile flags: /Ogtp
xdata$x	ENDS
;	COMDAT ??0CEngine@@QAE@PAUHINSTANCE__@@PAD1HH@Z
_TEXT	SEGMENT
__$EHRec$ = -12						; size = 12
_this$ = 8						; size = 4
_hInstance$ = 12					; size = 4
_iWidth$ = 16						; size = 4
_iHeight$ = 20						; size = 4
??0CEngine@@QAE@PAUHINSTANCE__@@PAD1HH@Z PROC		; CEngine::CEngine, COMDAT
; File c:\users\administrator\documents\visual studio 2010\projects\supermario__\supermario_\supermario\cengine.cpp
; Line 113
	push	ebp
	mov	ebp, esp
	push	-1
	push	__ehhandler$??0CEngine@@QAE@PAUHINSTANCE__@@PAD1HH@Z
	mov	eax, DWORD PTR fs:0
	push	eax
	push	ebx
	push	esi
	push	edi
	mov	eax, DWORD PTR ___security_cookie
	xor	eax, ebp
	push	eax
	lea	eax, DWORD PTR __$EHRec$[ebp]
	mov	DWORD PTR fs:0, eax
	mov	edi, DWORD PTR _this$[ebp]
	xor	ebx, ebx
	mov	DWORD PTR [edi+4], ebx
; Line 115
	mov	eax, DWORD PTR _hInstance$[ebp]
	mov	DWORD PTR __$EHRec$[ebp+8], ebx
; Line 117
	mov	esi, DWORD PTR __imp__lstrcpyA@8
	push	OFFSET ??_C@_0L@FNKLPHN@SuperMario?$AA@
	lea	ecx, DWORD PTR [edi+20]
	push	ecx
	mov	DWORD PTR [edi], OFFSET ??_7CEngine@@6B@
	mov	DWORD PTR ?pEngine@CEngine@@1PAV1@A, edi ; CEngine::pEngine
	mov	DWORD PTR [edi+16], eax
	call	esi
; Line 119
	push	OFFSET ??_C@_0CK@HIDACDCP@SuperMario?5Version?51?40?5By?5Ncu?$CIC?$CJ@
	lea	edx, DWORD PTR [edi+84]
	push	edx
	call	esi
; Line 120
	mov	eax, DWORD PTR _iWidth$[ebp]
; Line 121
	mov	ecx, DWORD PTR _iHeight$[ebp]
; Line 123
	push	160					; 000000a0H
	mov	DWORD PTR [edi+148], eax
	mov	DWORD PTR [edi+152], ecx
	mov	DWORD PTR [edi+168], ebx
	call	??2@YAPAXI@Z				; operator new
	add	esp, 4
	cmp	eax, ebx
	je	SHORT $LN3@CEngine@2
	mov	esi, eax
	call	??0CDesktop@@QAE@XZ			; CDesktop::CDesktop
	mov	DWORD PTR [edi+196], eax
	jmp	SHORT $LN10@CEngine@2
$LN3@CEngine@2:
	mov	DWORD PTR [edi+196], ebx
$LN10@CEngine@2:
; Line 124
	mov	eax, edi
	mov	ecx, DWORD PTR __$EHRec$[ebp]
	mov	DWORD PTR fs:0, ecx
	pop	ecx
	pop	edi
	pop	esi
	pop	ebx
	mov	esp, ebp
	pop	ebp
	ret	16					; 00000010H
_TEXT	ENDS
;	COMDAT text$x
text$x	SEGMENT
__unwindfunclet$??0CEngine@@QAE@PAUHINSTANCE__@@PAD1HH@Z$0:
	mov	ecx, DWORD PTR _this$[ebp]
	jmp	??1CGdiBmp@@UAE@XZ			; CGdiBmp::~CGdiBmp
__ehhandler$??0CEngine@@QAE@PAUHINSTANCE__@@PAD1HH@Z:
	mov	edx, DWORD PTR [esp+8]
	lea	eax, DWORD PTR [edx+12]
	mov	ecx, DWORD PTR [edx-16]
	xor	ecx, eax
	call	@__security_check_cookie@4
	mov	eax, OFFSET __ehfuncinfo$??0CEngine@@QAE@PAUHINSTANCE__@@PAD1HH@Z
	jmp	___CxxFrameHandler3
text$x	ENDS
??0CEngine@@QAE@PAUHINSTANCE__@@PAD1HH@Z ENDP		; CEngine::CEngine
PUBLIC	__real@406f400000000000
PUBLIC	__real@4079000000000000
PUBLIC	__$ArrayPad$
PUBLIC	?GameEvent@CEngine@@QAEJPAUHWND__@@IIJ@Z	; CEngine::GameEvent
;	COMDAT __real@406f400000000000
; File c:\users\administrator\documents\visual studio 2010\projects\supermario__\supermario_\supermario\cdesktop.cpp
CONST	SEGMENT
__real@406f400000000000 DQ 0406f400000000000r	; 250
CONST	ENDS
;	COMDAT __real@4079000000000000
CONST	SEGMENT
__real@4079000000000000 DQ 04079000000000000r	; 400
; Function compile flags: /Ogtp
CONST	ENDS
;	COMDAT ?GameEvent@CEngine@@QAEJPAUHWND__@@IIJ@Z
_TEXT	SEGMENT
tv644 = -228						; size = 4
tv640 = -228						; size = 4
tv634 = -228						; size = 4
tv632 = -228						; size = 4
tv628 = -228						; size = 4
tv624 = -228						; size = 4
tv618 = -228						; size = 4
tv614 = -228						; size = 4
tv464 = -224						; size = 8
tv358 = -224						; size = 8
_aboutWin$100397 = -216					; size = 48
tv350 = -168						; size = 8
_rc$100420 = -168					; size = 16
_rc$100430 = -152					; size = 16
_ps$100452 = -136					; size = 64
_p$100379 = -72						; size = 64
__$ArrayPad$ = -4					; size = 4
_this$ = 8						; size = 4
_hWnd$ = 12						; size = 4
_msg$ = 16						; size = 4
?GameEvent@CEngine@@QAEJPAUHWND__@@IIJ@Z PROC		; CEngine::GameEvent, COMDAT
; _wParam$ = ecx
; _lParam$ = edx
; File c:\users\administrator\documents\visual studio 2010\projects\supermario__\supermario_\supermario\cengine.cpp
; Line 164
	push	ebp
	mov	ebp, esp
	and	esp, -8					; fffffff8H
	sub	esp, 228				; 000000e4H
	mov	eax, DWORD PTR ___security_cookie
	xor	eax, esp
	mov	DWORD PTR __$ArrayPad$[esp+228], eax
	mov	eax, DWORD PTR _msg$[ebp]
	push	ebx
	mov	ebx, DWORD PTR _this$[ebp]
	push	esi
	push	edi
	mov	edi, DWORD PTR _hWnd$[ebp]
	mov	esi, ecx
; Line 167
	cmp	eax, 16					; 00000010H
	ja	$LN39@GameEvent
	je	SHORT $LN4@GameEvent
	lea	ecx, DWORD PTR [eax-1]
	cmp	ecx, 14					; 0000000eH
	ja	$LN31@GameEvent
	movzx	ecx, BYTE PTR $LN69@GameEvent[ecx]
	jmp	DWORD PTR $LN76@GameEvent[ecx*4]
$LN23@GameEvent:
; Line 212
	mov	DWORD PTR [ebx+200], 0
; Line 213
	jmp	$LN5@GameEvent
$LN22@GameEvent:
; Line 215
	mov	DWORD PTR [ebx+200], 1
; Line 216
	jmp	$LN5@GameEvent
$LN21@GameEvent:
; Line 219
	mov	esi, edi
	mov	DWORD PTR [ebx+208], edi
	call	?GameBegin@@YAXPAUHWND__@@@Z		; GameBegin
; Line 220
	jmp	$LN5@GameEvent
$LN2@GameEvent:
; Line 344
	lea	edx, DWORD PTR _ps$100452[esp+240]
	push	edx
	push	edi
	call	DWORD PTR __imp__BeginPaint@8
; Line 345
	call	?GamePaint@@YAXPAUHDC__@@@Z		; GamePaint
; Line 346
	lea	eax, DWORD PTR _ps$100452[esp+240]
	push	eax
	push	edi
	call	DWORD PTR __imp__EndPaint@8
; Line 347
	jmp	$LN5@GameEvent
$LN1@GameEvent:
; Line 349
	push	0
	call	DWORD PTR __imp__PostQuitMessage@4
; Line 350
	jmp	$LN5@GameEvent
$LN4@GameEvent:
; Line 336
	push	1
	call	DWORD PTR __imp__ShowCursor@4
; Line 337
	push	33					; 00000021H
	add	ebx, 84					; 00000054H
	push	ebx
	push	OFFSET ??_C@_0O@NHMMNAMA@Are?5you?5sure?$DP?$AA@
$LN74@GameEvent:
	push	0
	call	DWORD PTR __imp__MessageBoxA@16
	cmp	eax, 1
	jne	$LN5@GameEvent
$LN73@GameEvent:
; Line 339
	push	edi
	call	DWORD PTR __imp__DestroyWindow@4
; Line 341
	jmp	$LN5@GameEvent
$LN39@GameEvent:
; Line 167
	cmp	eax, 274				; 00000112H
	ja	$LN40@GameEvent
	je	$LN14@GameEvent
	mov	ecx, eax
	sub	ecx, 256				; 00000100H
	je	$LN30@GameEvent
	sub	ecx, 2
	jne	$LN31@GameEvent
; Line 222
	cmp	BYTE PTR ?inPlaying@@3_NA, cl		; inPlaying
	jne	$LN5@GameEvent
	cmp	BYTE PTR ?inWelcome@@3_NA, cl		; inWelcome
	je	$LN5@GameEvent
	cmp	BYTE PTR ?inLevelBegin@@3_NA, cl	; inLevelBegin
	jne	$LN5@GameEvent
; Line 223
	cmp	esi, 65					; 00000041H
	je	SHORT $LN17@GameEvent
	cmp	esi, 97					; 00000061H
	jne	$LN5@GameEvent
$LN17@GameEvent:
; Line 231
	mov	ecx, DWORD PTR [ebx+16]
	xor	edi, edi
; Line 233
	push	32512					; 00007f00H
	push	edi
	mov	DWORD PTR _aboutWin$100397[esp+248], 48	; 00000030H
	mov	DWORD PTR _aboutWin$100397[esp+252], 11	; 0000000bH
	mov	DWORD PTR _aboutWin$100397[esp+256], OFFSET ?WndProcAbout@@YGJPAUHWND__@@IIJ@Z ; WndProcAbout
	mov	DWORD PTR _aboutWin$100397[esp+260], edi
	mov	DWORD PTR _aboutWin$100397[esp+264], edi
	mov	DWORD PTR _aboutWin$100397[esp+268], ecx
	mov	DWORD PTR _aboutWin$100397[esp+272], edi
	call	DWORD PTR __imp__LoadCursorA@8
; Line 234
	push	edi
	mov	DWORD PTR _aboutWin$100397[esp+272], eax
	call	DWORD PTR __imp__CreateSolidBrush@4
; Line 238
	lea	edx, DWORD PTR _aboutWin$100397[esp+240]
	push	edx
	mov	DWORD PTR _aboutWin$100397[esp+276], eax
	mov	DWORD PTR _aboutWin$100397[esp+284], OFFSET ??_C@_03OKNNHOME@mai?$AA@
	mov	DWORD PTR _aboutWin$100397[esp+280], edi
	mov	DWORD PTR _aboutWin$100397[esp+288], edi
	call	DWORD PTR __imp__RegisterClassExA@4
	test	ax, ax
; Line 239
	je	$LN5@GameEvent
; Line 242
	mov	eax, DWORD PTR [ebx+16]
	mov	ecx, DWORD PTR [ebx+152]
	mov	edx, DWORD PTR [ebx+148]
	push	edi
	push	eax
	push	edi
	push	edi
	push	ecx
	push	edx
	push	edi
	push	-2147483648				; 80000000H
	push	13303808				; 00cb0000H
	push	OFFSET ??_C@_0BA@ILAPJEOG@ABOUT?5?9?5Exit?$FLE?$FN?$AA@
	push	OFFSET ??_C@_03OKNNHOME@mai?$AA@
	push	edi
	call	DWORD PTR __imp__CreateWindowExA@48
	mov	esi, eax
; Line 243
	push	esi
	push	OFFSET ??_C@_03PMGGPEJJ@?$CFd?6?$AA@
	call	_printf
	add	esp, 8
; Line 244
	cmp	esi, edi
; Line 245
	je	$LN5@GameEvent
; Line 246
	mov	ebx, DWORD PTR __imp__GetSystemMetrics@4
	push	edi
	push	416					; 000001a0H
	push	600					; 00000258H
	push	1
	call	ebx
	mov	ecx, eax
	mov	eax, 1431655766				; 55555556H
	imul	ecx
	mov	eax, edx
	shr	eax, 31					; 0000001fH
	add	eax, edx
	push	eax
	push	edi
	call	ebx
	mov	ecx, eax
	mov	eax, 1431655766				; 55555556H
	imul	ecx
	mov	ecx, edx
	shr	ecx, 31					; 0000001fH
	add	ecx, edx
	push	ecx
	push	edi
	push	esi
	call	DWORD PTR __imp__SetWindowPos@28
; Line 247
	push	1
	push	esi
	call	DWORD PTR __imp__ShowWindow@8
; Line 249
	push	esi
	call	DWORD PTR __imp__UpdateWindow@4
; Line 252
	jmp	$LN5@GameEvent
$LN30@GameEvent:
; Line 171
	lea	edx, DWORD PTR _p$100379[esp+240]
	push	edx
	push	edi
	call	DWORD PTR __imp__BeginPaint@8
; Line 172
	call	?KeyControl@@YAX_NPAUHDC__@@@Z		; KeyControl
; Line 174
	cmp	esi, 27					; 0000001bH
	jne	$LN5@GameEvent
; Line 176
	xor	eax, eax
	cmp	DWORD PTR [ebx+168], eax
; Line 180
	push	1
	sete	al
	mov	DWORD PTR [ebx+168], eax
	test	eax, eax
	jne	SHORT $LN27@GameEvent
	call	DWORD PTR __imp__ShowCursor@4
; Line 181
	mov	esi, DWORD PTR [ebx+196]
	call	?ResetMode@CDesktop@@QAEXXZ		; CDesktop::ResetMode
; Line 183
	mov	eax, DWORD PTR [ebx+188]
	mov	esi, DWORD PTR __imp__SetWindowLongA@12
	push	eax
	push	-16					; fffffff0H
	push	edi
	call	esi
; Line 184
	mov	ecx, DWORD PTR [ebx+192]
	push	ecx
	push	-20					; ffffffecH
	push	edi
	call	esi
; Line 187
	mov	eax, DWORD PTR [ebx+176]
	mov	edx, DWORD PTR [ebx+184]
	mov	ecx, DWORD PTR [ebx+172]
; Line 190
	push	64					; 00000040H
	sub	edx, eax
	push	edx
	mov	edx, DWORD PTR [ebx+180]
	sub	edx, ecx
	push	edx
	push	eax
	push	ecx
; Line 192
	jmp	$LN75@GameEvent
$LN27@GameEvent:
; Line 195
	mov	esi, DWORD PTR __imp__ShowCursor@4
	call	esi
; Line 197
	push	33					; 00000021H
	lea	eax, DWORD PTR [ebx+84]
	push	eax
	push	OFFSET ??_C@_0BB@GJLMOHLD@?D?c?H?$LH?$LG?$KI?R?$KK?M?K?$LD?v?B?p?$KD?$LP?$AA@
	push	0
	call	DWORD PTR __imp__MessageBoxA@16
	cmp	eax, 1
; Line 201
	je	$LN73@GameEvent
; Line 204
	xor	ecx, ecx
	cmp	DWORD PTR [ebx+168], ecx
; Line 205
	push	0
	sete	cl
	mov	DWORD PTR [ebx+168], ecx
	call	esi
; Line 206
	jmp	$LN5@GameEvent
$LN14@GameEvent:
; Line 254
	cmp	esi, 61488				; 0000f030H
	jne	$LN13@GameEvent
; Line 256
	xor	eax, eax
	cmp	DWORD PTR [ebx+168], eax
	sete	al
	mov	DWORD PTR [ebx+168], eax
; Line 257
	test	eax, eax
	je	$LN5@GameEvent
; Line 259
	push	0
	call	DWORD PTR __imp__ShowCursor@4
; Line 260
	lea	edx, DWORD PTR [ebx+172]
	push	edx
	push	edi
	call	DWORD PTR __imp__GetWindowRect@8
; Line 261
	mov	esi, DWORD PTR __imp__GetWindowLongA@8
	push	-16					; fffffff0H
	push	edi
	call	esi
; Line 262
	push	-20					; ffffffecH
	push	edi
	mov	DWORD PTR [ebx+188], eax
	call	esi
; Line 264
	mov	esi, DWORD PTR [ebx+196]
	mov	DWORD PTR [ebx+192], eax
	call	?SaveMode@CDesktop@@QAEXXZ		; CDesktop::SaveMode
; Line 269
	call	DWORD PTR __imp__GetDesktopWindow@0
; Line 270
	lea	ecx, DWORD PTR _rc$100420[esp+240]
	push	ecx
	push	eax
	call	DWORD PTR __imp__GetWindowRect@8
; Line 272
	mov	edx, DWORD PTR [ebx+152]
	mov	eax, DWORD PTR [ebx+148]
	mov	ebx, DWORD PTR [ebx+196]
	push	edx
	push	eax
	call	?ChangeMode@CDesktop@@QAE_NHH@Z		; CDesktop::ChangeMode
; Line 276
	mov	esi, DWORD PTR __imp__SetWindowLongA@12
	push	256					; 00000100H
	push	-20					; ffffffecH
	push	edi
	call	esi
; Line 277
	push	8388608					; 00800000H
	push	-16					; fffffff0H
	push	edi
	call	esi
; Line 278
	mov	ecx, DWORD PTR _rc$100420[esp+252]
	mov	edx, DWORD PTR _rc$100420[esp+248]
	push	64					; 00000040H
	push	ecx
	push	edx
	push	-1
	push	-1
	push	0
; Line 280
	jmp	$LN72@GameEvent
$LN13@GameEvent:
; Line 281
	cmp	esi, 61536				; 0000f060H
	jne	SHORT $LN10@GameEvent
; Line 283
	push	1
	call	DWORD PTR __imp__ShowCursor@4
; Line 285
	push	33					; 00000021H
	add	ebx, 84					; 00000054H
	push	ebx
	push	OFFSET ??_C@_0BB@GJLMOHLD@?D?c?H?$LH?$LG?$KI?R?$KK?M?K?$LD?v?B?p?$KD?$LP?$AA@
; Line 296
	jmp	$LN74@GameEvent
$LN10@GameEvent:
; Line 294
	push	edx
	push	esi
	push	274					; 00000112H
	push	edi
	call	DWORD PTR __imp__DefWindowProcA@16
; Line 353
	pop	edi
	pop	esi
	pop	ebx
	mov	ecx, DWORD PTR __$ArrayPad$[esp+228]
	xor	ecx, esp
	call	@__security_check_cookie@4
	mov	esp, ebp
	pop	ebp
	ret	12					; 0000000cH
$LN40@GameEvent:
; Line 167
	cmp	eax, 515				; 00000203H
	je	SHORT $LN7@GameEvent
$LN31@GameEvent:
; Line 352
	push	edx
	push	esi
	push	eax
	push	edi
	call	DWORD PTR __imp__DefWindowProcA@16
; Line 353
	pop	edi
	pop	esi
	pop	ebx
	mov	ecx, DWORD PTR __$ArrayPad$[esp+228]
	xor	ecx, esp
	call	@__security_check_cookie@4
	mov	esp, ebp
	pop	ebp
	ret	12					; 0000000cH
$LN7@GameEvent:
; Line 298
	xor	eax, eax
	cmp	DWORD PTR [ebx+168], eax
	sete	al
	mov	DWORD PTR [ebx+168], eax
; Line 299
	test	eax, eax
	je	$LN6@GameEvent
; Line 301
	push	0
	call	DWORD PTR __imp__ShowCursor@4
; Line 302
	lea	eax, DWORD PTR [ebx+172]
	push	eax
	push	edi
	call	DWORD PTR __imp__GetWindowRect@8
; Line 303
	mov	esi, DWORD PTR __imp__GetWindowLongA@8
	push	-16					; fffffff0H
	push	edi
	call	esi
; Line 304
	push	-20					; ffffffecH
	push	edi
	mov	DWORD PTR [ebx+188], eax
	call	esi
; Line 305
	mov	esi, DWORD PTR [ebx+196]
	mov	DWORD PTR [ebx+192], eax
	call	?SaveMode@CDesktop@@QAEXXZ		; CDesktop::SaveMode
; Line 309
	call	DWORD PTR __imp__GetDesktopWindow@0
; Line 310
	lea	ecx, DWORD PTR _rc$100430[esp+240]
	push	ecx
	push	eax
	call	DWORD PTR __imp__GetWindowRect@8
; Line 313
	mov	esi, DWORD PTR __imp__GetSystemMetrics@4
	push	0
	call	esi
	mov	DWORD PTR tv644[esp+240], eax
	fild	DWORD PTR tv644[esp+240]
	push	1
	fdiv	QWORD PTR __real@4079000000000000
	fstp	QWORD PTR tv464[esp+244]
	call	esi
	mov	DWORD PTR tv640[esp+240], eax
	fild	DWORD PTR tv640[esp+240]
	fdiv	QWORD PTR __real@406f400000000000
	fcomp	QWORD PTR tv464[esp+240]
	fnstsw	ax
	test	ah, 65					; 00000041H
	jp	SHORT $LN35@GameEvent
	push	1
	call	esi
	mov	DWORD PTR tv634[esp+240], eax
	fild	DWORD PTR tv634[esp+240]
	jmp	SHORT $LN71@GameEvent
$LN35@GameEvent:
	push	0
	call	esi
	mov	DWORD PTR tv632[esp+240], eax
	fild	DWORD PTR tv632[esp+240]
	fdiv	QWORD PTR __real@4079000000000000
	fmul	QWORD PTR __real@406f400000000000
$LN71@GameEvent:
	push	0
	fstp	QWORD PTR tv358[esp+244]
	call	esi
	mov	DWORD PTR tv628[esp+240], eax
	fild	DWORD PTR tv628[esp+240]
	push	1
	fdiv	QWORD PTR __real@4079000000000000
	fstp	QWORD PTR tv350[esp+244]
	call	esi
	mov	DWORD PTR tv624[esp+240], eax
	fild	DWORD PTR tv624[esp+240]
	fdiv	QWORD PTR __real@406f400000000000
	fcomp	QWORD PTR tv350[esp+240]
	fnstsw	ax
	test	ah, 65					; 00000041H
	jp	SHORT $LN37@GameEvent
	push	1
	call	esi
	mov	DWORD PTR tv618[esp+240], eax
	fild	DWORD PTR tv618[esp+240]
	fdiv	QWORD PTR __real@406f400000000000
	fmul	QWORD PTR __real@4079000000000000
	jmp	SHORT $LN38@GameEvent
$LN37@GameEvent:
	push	0
	call	esi
	mov	DWORD PTR tv614[esp+240], eax
	fild	DWORD PTR tv614[esp+240]
$LN38@GameEvent:
	fld	QWORD PTR tv358[esp+240]
	call	__ftol2_sse
	push	eax
	call	__ftol2_sse
	mov	ebx, DWORD PTR [ebx+196]
	push	eax
	call	?ChangeMode@CDesktop@@QAE_NHH@Z		; CDesktop::ChangeMode
; Line 318
	mov	esi, DWORD PTR __imp__SetWindowLongA@12
	push	256					; 00000100H
	push	-20					; ffffffecH
	push	edi
	call	esi
; Line 319
	push	8388608					; 00800000H
	push	-16					; fffffff0H
	push	edi
	call	esi
; Line 320
	mov	edx, DWORD PTR _rc$100430[esp+252]
	mov	eax, DWORD PTR _rc$100430[esp+248]
	push	64					; 00000040H
	push	edx
	push	eax
	push	0
	push	0
	push	0
; Line 322
	jmp	SHORT $LN72@GameEvent
$LN6@GameEvent:
; Line 324
	push	1
	call	DWORD PTR __imp__ShowCursor@4
; Line 325
	mov	esi, DWORD PTR [ebx+196]
	cmp	BYTE PTR [esi+156], 0
	je	SHORT $LN66@GameEvent
	push	0
	push	esi
	call	DWORD PTR __imp__ChangeDisplaySettingsA@8
	mov	BYTE PTR [esi+156], 0
$LN66@GameEvent:
; Line 326
	mov	ecx, DWORD PTR [ebx+188]
	mov	esi, DWORD PTR __imp__SetWindowLongA@12
	push	ecx
	push	-16					; fffffff0H
	push	edi
	call	esi
; Line 327
	mov	edx, DWORD PTR [ebx+192]
	push	edx
	push	-20					; ffffffecH
	push	edi
	call	esi
; Line 328
	mov	edx, DWORD PTR [ebx+172]
	mov	eax, DWORD PTR [ebx+180]
; Line 329
	mov	esi, DWORD PTR [ebx+176]
	mov	ecx, DWORD PTR [ebx+184]
	sub	eax, edx
; Line 332
	push	64					; 00000040H
	sub	ecx, esi
	push	ecx
	push	eax
	push	esi
	mov	DWORD PTR [ebx+148], eax
	mov	DWORD PTR [ebx+152], ecx
	push	edx
$LN75@GameEvent:
	push	-2					; fffffffeH
$LN72@GameEvent:
	push	edi
	call	DWORD PTR __imp__SetWindowPos@28
$LN5@GameEvent:
; Line 353
	mov	ecx, DWORD PTR __$ArrayPad$[esp+240]
	pop	edi
	pop	esi
	pop	ebx
	xor	ecx, esp
	xor	eax, eax
	call	@__security_check_cookie@4
	mov	esp, ebp
	pop	ebp
	ret	12					; 0000000cH
	npad	1
$LN76@GameEvent:
	DD	$LN21@GameEvent
	DD	$LN1@GameEvent
	DD	$LN23@GameEvent
	DD	$LN22@GameEvent
	DD	$LN2@GameEvent
	DD	$LN31@GameEvent
$LN69@GameEvent:
	DB	0
	DB	1
	DB	5
	DB	5
	DB	5
	DB	5
	DB	2
	DB	3
	DB	5
	DB	5
	DB	5
	DB	5
	DB	5
	DB	5
	DB	4
?GameEvent@CEngine@@QAEJPAUHWND__@@IIJ@Z ENDP		; CEngine::GameEvent
_TEXT	ENDS
PUBLIC	?WndProc@@YGJPAUHWND__@@IIJ@Z			; WndProc
; Function compile flags: /Ogtp
;	COMDAT ?WndProc@@YGJPAUHWND__@@IIJ@Z
_TEXT	SEGMENT
_hWnd$ = 8						; size = 4
_msg$ = 12						; size = 4
_wParam$ = 16						; size = 4
_lParam$ = 20						; size = 4
?WndProc@@YGJPAUHWND__@@IIJ@Z PROC			; WndProc, COMDAT
; Line 56
	push	ebp
	mov	ebp, esp
; Line 58
	mov	eax, DWORD PTR _msg$[ebp]
	mov	ecx, DWORD PTR _hWnd$[ebp]
	mov	edx, DWORD PTR ?pEngine@CEngine@@1PAV1@A ; CEngine::pEngine
	push	eax
	push	ecx
	mov	ecx, DWORD PTR _wParam$[ebp]
	push	edx
	mov	edx, DWORD PTR _lParam$[ebp]
	call	?GameEvent@CEngine@@QAEJPAUHWND__@@IIJ@Z ; CEngine::GameEvent
; Line 59
	pop	ebp
	ret	16					; 00000010H
?WndProc@@YGJPAUHWND__@@IIJ@Z ENDP			; WndProc
_TEXT	ENDS
PUBLIC	?Initialize@CEngine@@QAEHH@Z			; CEngine::Initialize
; Function compile flags: /Ogtp
;	COMDAT ?Initialize@CEngine@@QAEHH@Z
_TEXT	SEGMENT
_gamewin$ = -48						; size = 48
_iCmdShow$ = 8						; size = 4
?Initialize@CEngine@@QAEHH@Z PROC			; CEngine::Initialize, COMDAT
; _this$ = eax
; Line 135
	push	ebp
	mov	ebp, esp
	sub	esp, 48					; 00000030H
	push	ebx
	push	esi
	push	edi
; Line 141
	xor	ebx, ebx
	mov	esi, eax
; Line 143
	mov	eax, DWORD PTR [esi+16]
; Line 145
	push	32512					; 00007f00H
	push	ebx
	mov	DWORD PTR _gamewin$[ebp], 48		; 00000030H
	mov	DWORD PTR _gamewin$[ebp+4], 11		; 0000000bH
	mov	DWORD PTR _gamewin$[ebp+8], OFFSET ?WndProc@@YGJPAUHWND__@@IIJ@Z ; WndProc
	mov	DWORD PTR _gamewin$[ebp+12], ebx
	mov	DWORD PTR _gamewin$[ebp+16], ebx
	mov	DWORD PTR _gamewin$[ebp+20], eax
	mov	DWORD PTR _gamewin$[ebp+24], ebx
	call	DWORD PTR __imp__LoadCursorA@8
; Line 146
	push	ebx
	mov	DWORD PTR _gamewin$[ebp+28], eax
	call	DWORD PTR __imp__CreateSolidBrush@4
; Line 150
	lea	ecx, DWORD PTR _gamewin$[ebp]
	lea	edi, DWORD PTR [esi+20]
	push	ecx
	mov	DWORD PTR _gamewin$[ebp+32], eax
	mov	DWORD PTR _gamewin$[ebp+40], edi
	mov	DWORD PTR _gamewin$[ebp+36], ebx
	mov	DWORD PTR _gamewin$[ebp+44], ebx
	call	DWORD PTR __imp__RegisterClassExA@4
	test	ax, ax
	jne	SHORT $LN2@Initialize
$LN5@Initialize:
	pop	edi
	pop	esi
; Line 151
	xor	eax, eax
	pop	ebx
; Line 161
	mov	esp, ebp
	pop	ebp
	ret	4
$LN2@Initialize:
; Line 154
	mov	edx, DWORD PTR [esi+16]
	mov	eax, DWORD PTR [esi+152]
	mov	ecx, DWORD PTR [esi+148]
	push	ebx
	push	edx
	push	ebx
	push	ebx
	push	eax
	push	ecx
	push	ebx
	push	-2147483648				; 80000000H
	push	13303808				; 00cb0000H
	add	esi, 84					; 00000054H
	push	esi
	push	edi
	push	ebx
	call	DWORD PTR __imp__CreateWindowExA@48
	mov	esi, eax
; Line 155
	cmp	esi, ebx
; Line 156
	je	SHORT $LN5@Initialize
; Line 157
	mov	edx, DWORD PTR _iCmdShow$[ebp]
	push	edx
	push	esi
	call	DWORD PTR __imp__ShowWindow@8
; Line 158
	push	esi
	call	DWORD PTR __imp__UpdateWindow@4
	pop	edi
	pop	esi
; Line 160
	mov	eax, 1
	pop	ebx
; Line 161
	mov	esp, ebp
	pop	ebp
	ret	4
?Initialize@CEngine@@QAEHH@Z ENDP			; CEngine::Initialize
_TEXT	ENDS
PUBLIC	_WinMain@16
; Function compile flags: /Ogtp
;	COMDAT _WinMain@16
_TEXT	SEGMENT
_msg$ = -28						; size = 28
_hInstance$ = 8						; size = 4
_hPrevInstance$ = 12					; size = 4
_szCmdLine$ = 16					; size = 4
_iCmdShow$ = 20						; size = 4
_WinMain@16 PROC					; COMDAT
; Line 65
	push	ebp
	mov	ebp, esp
	sub	esp, 28					; 0000001cH
; Line 75
	push	212					; 000000d4H
	mov	DWORD PTR ?WinSize@@3UtagSIZE@@A, 400	; 00000190H
	mov	DWORD PTR ?WinSize@@3UtagSIZE@@A+4, 250	; 000000faH
	call	??2@YAPAXI@Z				; operator new
	add	esp, 4
	test	eax, eax
	je	SHORT $LN15@WinMain
	mov	ecx, DWORD PTR ?WinSize@@3UtagSIZE@@A+4
	mov	edx, DWORD PTR ?WinSize@@3UtagSIZE@@A
	push	ecx
	mov	ecx, DWORD PTR _hInstance$[ebp]
	push	edx
	push	ecx
	push	eax
	call	??0CEngine@@QAE@PAUHINSTANCE__@@PAD1HH@Z ; CEngine::CEngine
	jmp	SHORT $LN16@WinMain
$LN15@WinMain:
	xor	eax, eax
$LN16@WinMain:
; Line 77
	mov	edx, DWORD PTR _iCmdShow$[ebp]
	mov	DWORD PTR ?pEngine@@3PAVCEngine@@A, eax	; pEngine
	mov	DWORD PTR [eax+204], 66			; 00000042H
	mov	eax, DWORD PTR ?pEngine@CEngine@@1PAV1@A ; CEngine::pEngine
	push	edx
	call	?Initialize@CEngine@@QAEHH@Z		; CEngine::Initialize
	test	eax, eax
	jne	SHORT $LN38@WinMain
; Line 107
	mov	esp, ebp
	pop	ebp
	ret	16					; 00000010H
$LN38@WinMain:
	push	ebx
; Line 78
	mov	ebx, DWORD PTR __imp__DispatchMessageA@4
	push	esi
	mov	esi, DWORD PTR __imp__PeekMessageA@20
	push	edi
	mov	edi, DWORD PTR __imp__TranslateMessage@4
$LL7@WinMain:
; Line 82
	push	1
	push	0
	push	0
	push	0
	lea	eax, DWORD PTR _msg$[ebp]
	push	eax
	call	esi
	test	eax, eax
	je	SHORT $LN5@WinMain
; Line 84
	cmp	DWORD PTR _msg$[ebp+4], 18		; 00000012H
	je	SHORT $LN34@WinMain
; Line 86
	lea	ecx, DWORD PTR _msg$[ebp]
	push	ecx
	call	edi
; Line 87
	lea	edx, DWORD PTR _msg$[ebp]
	push	edx
	call	ebx
; Line 89
	jmp	SHORT $LL7@WinMain
$LN5@WinMain:
; Line 92
	mov	eax, DWORD PTR ?pEngine@CEngine@@1PAV1@A ; CEngine::pEngine
	cmp	DWORD PTR [eax+200], 0
	jne	SHORT $LL7@WinMain
; Line 94
	call	DWORD PTR __imp__GetTickCount@0
; Line 95
	cmp	eax, DWORD PTR ?TickElapsed@?1??WinMain@@9@16@4HA
	jle	SHORT $LL7@WinMain
; Line 97
	mov	ecx, DWORD PTR ?pEngine@CEngine@@1PAV1@A ; CEngine::pEngine
	mov	edx, DWORD PTR [ecx+204]
	add	edx, eax
	mov	DWORD PTR ?TickElapsed@?1??WinMain@@9@16@4HA, edx
; Line 98
	call	?GameRunning@@YAXXZ			; GameRunning
; Line 102
	jmp	SHORT $LL7@WinMain
$LN34@WinMain:
; Line 103
	mov	ecx, DWORD PTR ?pEngine@@3PAVCEngine@@A	; pEngine
	pop	edi
	pop	esi
	pop	ebx
	test	ecx, ecx
	je	SHORT $LN31@WinMain
	mov	eax, DWORD PTR [ecx]
	mov	edx, DWORD PTR [eax]
	push	1
	call	edx
$LN31@WinMain:
	mov	eax, DWORD PTR ?bufferBitmap@@3PAUHBITMAP__@@A ; bufferBitmap
	push	eax
	call	DWORD PTR __imp__DeleteObject@4
	mov	ecx, DWORD PTR ?bufferDC@@3PAUHDC__@@A	; bufferDC
	push	ecx
	mov	DWORD PTR ?bufferBitmap@@3PAUHBITMAP__@@A, 0 ; bufferBitmap
	call	DWORD PTR __imp__DeleteDC@4
	call	?ReleaseAll@@YAXXZ			; ReleaseAll
; Line 104
	mov	eax, DWORD PTR _msg$[ebp+8]
; Line 107
	mov	esp, ebp
	pop	ebp
	ret	16					; 00000010H
_WinMain@16 ENDP
END
